(dp0
S'Roanoke'
p1
F37.270969999999998
sS'Albany'
p2
F42.652579000000003
sS'New London'
p3
F41.355654000000001
sS'Middletown'
p4
F41.562199999999997
sS'Arlington'
p5
F32.735686999999999
sS'Kensington'
p6
F39.025664999999996
sS'Montgomery'
p7
F32.366804999999999
sS'Newark'
p8
F40.735657000000003
sS'London'
p9
F43.033299999999997
sS'Covington'
p10
F39.083671000000002
sS'St. Louis'
p11
F38.627003000000002
sS'Warwick'
p12
F41.256399999999999
sS'San Francisco'
p13
F37.774929999999998
sS'Boise'
p14
F43.61871
sS'New Haven'
p15
F41.308273999999997
sS'Columbia'
p16
F38.951700000000002
sS'Tulsa'
p17
F36.153981999999999
sS'Zanesville'
p18
F39.940345000000001
sS'Sacramento'
p19
F38.581572000000001
sS'Bayonne'
p20
F40.668599999999998
sS'Waterbury'
p21
F41.558152999999997
sS'Victoria'
p22
F48.428421
sS'St. John'
p23
F47.560541000000001
sS'El Paso'
p24
F31.75872
sS'Fort Wayne'
p25
F41.079273000000001
sS'Flint'
p26
F43.012526999999999
sS'York'
p27
F39.962499999999999
sS'Berkeley'
p28
F37.871592999999997
sS'Atlanta'
p29
F33.748995000000001
sS'Gloucester'
p30
F42.6158
sS'Tampa'
p31
F27.950575000000001
sS'Flagstaff'
p32
F35.201352
sS'Spring Garden'
p33
F39.952334999999998
sS'Norfolk'
p34
F36.850769
sS'Los Angeles'
p35
F34.052233999999999
sS'Miami'
p36
F25.788969000000002
sS'Colorado Springs'
p37
F38.833882000000003
sS'Lexington'
p38
F38.040584000000003
sS'Augusta'
p39
F33.473497999999999
sS'Newport'
p40
F41.490000000000002
sS'Nelson'
p41
F49.5
sS'Greensboro'
p42
F36.072634999999998
sS'New York'
p43
F40.714353000000003
sS'Virginia Beach'
p44
F36.852925999999997
sS'New Albany'
p45
F38.285625000000003
sS'Charlotte'
p46
F35.227086999999997
sS'Alexandria'
p47
F38.804836000000002
sS'Cincinnati'
p48
F39.103118000000002
sS'Williamsburgh'
p49
F37.270702
sS'Fresno'
p50
F36.746842000000001
sS'Savannah'
p51
F32.083540999999997
sS'Edmonton'
p52
F53.544389000000002
sS'Newburgh'
p53
F41.503427000000002
sS'Montpelier'
p54
F44.260058999999998
sS'Minneapolis'
p55
F44.983333999999999
sS'Hialeah'
p56
F25.857596000000001
sS'Long Beach'
p57
F33.768321
sS'Troy'
p58
F42.605589000000002
sS'Camden'
p59
F39.925800000000002
sS'Gary'
p60
F41.59337
sS'Allegheny'
p61
F40.445081000000002
sS'Seattle'
p62
F47.606209999999997
sS'Pawtucket'
p63
F41.878711000000003
sS'Warren'
p64
F42.514457
sS'San Juan'
p65
F18.466334
sS'Jackson'
p66
F32.298757000000002
sS'Nome'
p67
F64.501110999999995
sS'Austin'
p68
F30.267153
sS'Washington'
p69
F38.895111999999997
sS'Toledo'
p70
F41.663938000000002
sS'Northern Liberties'
p71
F39.963692000000002
sS'Chattanooga'
p72
F35.045630000000003
sS'Denver'
p73
F39.737566999999999
sS'Havre'
p74
F48.549999999999997
sS'Calgary'
p75
F51.045324999999998
sS'Burlington'
p76
F44.475883000000003
sS'Cheyenne'
p77
F41.139980999999999
sS'Fargo'
p78
F46.877186000000002
sS'Spokane'
p79
F47.65878
sS'Key West'
p80
F24.555703000000001
sS'Evansville'
p81
F37.971558999999999
sS'St. Joseph'
p82
F39.757944000000002
sS'Eugene'
p83
F44.052069000000003
sS'East St. Louis'
p84
F38.615555999999998
sS'Elizabeth'
p85
F40.663992
sS'Passaic'
p86
F40.856766
sS'Pittsburgh'
p87
F40.440624999999997
sS'Peoria'
p88
F40.693649000000001
sS'San Diego'
p89
F32.715328999999997
sS'Haverhill'
p90
F42.776201999999998
sS'Albuquerque'
p91
F35.110703000000001
sS'Dubuque'
p92
F42.500557999999998
sS'Sioux City'
p93
F42.499994000000001
sS'New Orleans'
p94
F29.951066000000001
sS'Honolulu'
p95
F21.306944000000001
sS'Hot Springs'
p96
F34.503700000000002
sS'Manchester'
p97
F42.995600000000003
sS'Scranton'
p98
F41.408968999999999
sS'Brockton'
p99
F42.083433999999997
sS'San Antonio'
p100
F29.424122000000001
sS'Lynchburg'
p101
F37.413753999999997
sS'Rockford'
p102
F42.271130999999997
sS'Barnstable'
p103
F41.700000000000003
sS'Bridgeport'
p104
F41.186548000000002
sS'Wilmington'
p105
F34.225726000000002
sS'Baker'
p106
F48.777343000000002
sS'San Jose'
p107
F37.339385999999998
sS'Leavenworth'
p108
F39.311110999999997
sS'Eastport'
p109
F40.825932000000002
sS'Marblehead'
p110
F42.499957999999999
sS'Youngstown'
p111
F41.099780000000003
sS'Charlescity'
p112
F43.066361000000001
sS'Hoboken'
p113
F40.743991000000001
sS'Newburyport'
p114
F42.812590999999998
sS'Buffalo'
p115
F42.886446999999997
sS'Fort Worth'
p116
F32.725408999999999
sS'Madison'
p117
F43.073051999999997
sS'El Centro'
p118
F32.792000000000002
sS'Cohoes'
p119
F42.774245000000001
sS'Boston'
p120
F42.358431000000003
sS'Santa Fe'
p121
F35.686974999999997
sS'Dayton'
p122
F39.758947999999997
sS'Tucson'
p123
F32.221742999999996
sS'Terre Haute'
p124
F39.466703000000003
sS'Aurora'
p125
F39.729432000000003
sS'Dorchester'
p126
F42.301630000000003
sS'Holyoke'
p127
F42.204259
sS'Las Vegas'
p128
F36.114646
sS'Knoxville'
p129
F35.960638000000003
sS'Quebec'
p130
F52.939915999999997
sS'Lockport'
p131
F43.170613000000003
sS'Huntington Beach'
p132
F33.660297
sS'Erie'
p133
F42.129224000000001
sS'Gardiner'
p134
F44.230069999999998
sS'Carlsbad'
p135
F33.158093000000001
sS'Carlisle'
p136
F40.202500000000001
sS'Quincy'
p137
F42.252876999999998
sS'Dallas'
p138
F32.780140000000003
sS'Fremont'
p139
F37.548270000000002
sS'Chicopee'
p140
F42.148704000000002
sS'Andover'
p141
F42.672199999999997
sS'St. Petersburg'
p142
F27.773056
sS'Canton'
p143
F40.798900000000003
sS'Richmond'
p144
F37.540725000000002
sS'Sitka'
p145
F57.053055999999998
sS'Louisville'
p146
F38.252665
sS'Santa Ana'
p147
F33.745573
sS'Rochester'
p148
F43.161029999999997
sS'Riverside'
p149
F33.953349000000003
sS'Richfield'
p150
F44.883298000000003
sS'Portland (OR)'
p151
F45.523451999999999
sS'Fort Lauderdale'
p152
F26.122308
sS'Columbus'
p153
F39.961176000000002
sS'Indianapolis'
p154
F39.768402999999999
sS'Danvers'
p155
F42.575001
sS'Lawrence'
p156
F38.971668999999999
sS'South Bend'
p157
F41.676355000000001
sS'Baton Rouge'
p158
F30.458283000000002
sS'Wichita'
p159
F37.688889000000003
sS'Yonkers'
p160
F40.93121
sS'Brooklyn'
p161
F40.649999999999999
sS'Poughkeepsie'
p162
F41.700370999999997
sS'Salem'
p163
F44.942898
sS'Shreveport'
p164
F32.525151999999999
sS'Allentown'
p165
F40.608431000000003
sS'Akron'
p166
F41.081445000000002
sS'Mesa'
p167
F33.415184000000004
sS'Memphis'
p168
F35.149534000000003
sS'Binghamton'
p169
F42.098686999999998
sS'Toronto'
p170
F43.653225999999997
sS'Salt Lake City'
p171
F40.760778999999999
sS'Lincoln'
p172
F40.806862000000002
sS'New Bedford'
p173
F41.636215
sS'Moose Jaw'
p174
F50.391581000000002
sS'Metairie'
p175
F29.984092
sS'Houston'
p176
F29.760193000000001
sS'Moyamensing'
p177
F39.917408999999999
sS'Little Rock'
p178
F34.746481000000003
sS'Detroit'
p179
F42.331426999999998
sS'Anaheim'
p180
F33.835293
sS'Portsmouth'
p181
F43.0717
sS'Williamsport'
p182
F41.241190000000003
sS'Beverly'
p183
F42.558427999999999
sS'Charleston'
p184
F32.776566000000003
sS'Fayetteville'
p185
F36.062579999999997
sS'Lewiston'
p186
F44.100351000000003
sS'Davenport'
p187
F41.523643999999997
sS'New Brunswick'
p188
F40.486215999999999
sS'Montreal'
p189
F45.508670000000002
sS'Charlestown'
p190
F42.379541000000003
sS'Stockton'
p191
F37.957701999999998
sS'Concord'
p192
F37.977978
sS'Pottsville'
p193
F40.685645999999998
sS'Worcester'
p194
F42.262593000000003
sS'Bath'
p195
F42.3369
sS'Helena'
p196
F46.595806000000003
sS'Altoona'
p197
F40.518681000000001
sS'Birmingham'
p198
F33.520660999999997
sS'Easton'
p199
F40.688431999999999
sS'Cleveland'
p200
F41.499495000000003
sS'Oklahoma City'
p201
F35.467559999999999
sS'Auburn'
p202
F32.609856999999998
sS'Somerville'
p203
F42.387597
sS'Oswego'
p204
F43.455345999999999
sS'Petersburg'
p205
F37.213000000000001
sS'Lancaster'
p206
F40.037799999999997
sS'Southwark'
p207
F39.952334999999998
sS'West Troy'
p208
F42.605589000000002
sS'Cumberland'
p209
F39.652864999999998
sS'Chicago'
p210
F41.878113999999997
sS'Bismarck'
p211
F46.808326999999998
sS'Lubbock'
p212
F33.577863000000001
sS'Hudson'
p213
F42.252865
sS'Providence'
p214
F41.823988999999997
sS'Philadelphia'
p215
F39.952334999999998
sS'Wilkes-Barre'
p216
F41.245914999999997
sS'Idaho Falls'
p217
F43.491650999999997
sS'Winnipeg'
p218
F49.899754000000001
sS'Vancouver'
p219
F49.261226000000001
sS'Utica'
p220
F43.100903000000002
sS'Paterson'
p221
F40.916764999999998
sS'Bay City'
p222
F43.594467999999999
sS'Syracuse'
p223
F43.048121999999999
sS'Springfield'
p224
F37.208956999999998
sS'Saginaw'
p225
F43.419469999999997
sS'Lowell'
p226
F42.633425000000003
sS'Reading'
p227
F40.335599999999999
sS'Patterson'
p228
F37.471600000000002
sS'Phoenix'
p229
F33.448377000000001
sS'Norwich'
p230
F41.5242
sS'Raleigh'
p231
F35.772095999999998
sS'Nashville'
p232
F36.166666999999997
sS'Klamath Falls'
p233
F42.224867000000003
sS'Amarillo'
p234
F35.221997000000002
sS'Duluth'
p235
F46.786672000000003
sS'Mobile'
p236
F30.694357
sS'Sioux Falls'
p237
F43.549975000000003
sS'Grand Rapids'
p238
F42.963360000000002
sS'Hartford'
p239
F41.763711000000001
sS'Cambridge'
p240
F42.373615999999998
sS'Jacksonville'
p241
F30.332184000000002
sS'Johnstown'
p242
F40.326740999999998
sS'Lynn'
p243
F42.466763
sS'Bakersfield'
p244
F35.373291999999999
sS'Roxbury'
p245
F42.315198000000002
sS'Omaha'
p246
F41.252363000000003
sS'Jersey City'
p247
F40.728157000000003
sS'Georgetown'
p248
F38.890000000000001
sS'Chelsea'
p249
F42.391764000000002
sS'Anchorage'
p250
F61.218055999999997
sS'Frederick'
p251
F39.414268999999997
sS'Kansas City'
p252
F39.099727000000001
sS'Plymouth'
p253
F41.958300000000001
sS'Bangor'
p254
F44.801181999999997
sS'Lafayette'
p255
F30.22409
sS'Ottawa'
p256
F45.421529999999997
sS'Milwaukee'
p257
F43.038902999999998
sS'Glendale'
p258
F34.142507999999999
sS'Wheeling'
p259
F40.063961999999997
sS'Grand Junction'
p260
F39.063870999999999
sS'Portland'
p261
F45.523451999999999
sS'Baltimore'
p262
F39.290385000000001
sS'Dover'
p263
F39.158099999999997
sS'Galveston'
p264
F29.301348000000001
sS'Trenton'
p265
F40.217053
sS'Tacoma'
p266
F47.252876999999998
sS'Middleborough'
p267
F41.892994000000002
sS'Garland'
p268
F32.912624000000001
sS'Fall River'
p269
F41.701490999999997
sS'Taunton'
p270
F41.899999999999999
sS'Nashua'
p271
F42.765366
sS'Kingston'
p272
F44.231172000000001
sS'Pierre'
p273
F44.372401000000004
sS'Reno'
p274
F39.529632999999997
sS'Elmira'
p275
F42.089796999999997
sS'Harrisburg'
p276
F40.273699999999998
sS'Nantucket'
p277
F41.283470000000001
sS'Steubenville'
p278
F40.369790999999999
sS'North Providence'
p279
F41.853552000000001
sS'Des Moines'
p280
F41.600544999999997
sS'Juneau'
p281
F58.301943999999999
sS'Topeka'
p282
F39.055824000000001
sS'Corpus Christi'
p283
F27.800583
sS'Oakland'
p284
F37.804364
sS'Schenectady'
p285
F42.814242999999998
sS'St. Paul'
p286
F44.953702999999997
s.