(dp0
S'Roanoke'
p1
F79.941427000000004
sS'Albany'
p2
F73.756231999999997
sS'New London'
p3
F72.099520999999996
sS'Middletown'
p4
F72.6511
sS'Arlington'
p5
F97.108065999999994
sS'Kensington'
p6
F77.076367000000005
sS'Montgomery'
p7
F86.299969000000004
sS'Newark'
p8
F74.172366999999994
sS'London'
p9
F81.150000000000006
sS'Covington'
p10
F84.508554000000004
sS'St. Louis'
p11
F90.199404000000001
sS'Warwick'
p12
F74.360299999999995
sS'San Francisco'
p13
F122.419416
sS'Boise'
p14
F116.214607
sS'New Haven'
p15
F72.927882999999994
sS'Columbia'
p16
F92.3339
sS'Tulsa'
p17
F95.992774999999995
sS'Zanesville'
p18
F82.013192000000004
sS'Sacramento'
p19
F121.4944
sS'Bayonne'
p20
F74.114699999999999
sS'Waterbury'
p21
F73.051496
sS'Victoria'
p22
F123.365644
sS'St. John'
p23
F52.712831000000001
sS'El Paso'
p24
F106.486931
sS'Fort Wayne'
p25
F85.139351000000005
sS'Flint'
p26
F83.687455999999997
sS'York'
p27
F76.728099999999998
sS'Berkeley'
p28
F122.272747
sS'Atlanta'
p29
F84.387981999999994
sS'Gloucester'
p30
F70.662499999999994
sS'Tampa'
p31
F82.457177999999999
sS'Flagstaff'
p32
F111.63924900000001
sS'Spring Garden'
p33
F75.163788999999994
sS'Norfolk'
p34
F76.285872999999995
sS'Los Angeles'
p35
F118.243685
sS'Miami'
p36
F80.226438999999999
sS'Colorado Springs'
p37
F104.82136300000001
sS'Lexington'
p38
F84.503715999999997
sS'Augusta'
p39
F82.010514999999998
sS'Newport'
p40
F71.313299999999998
sS'Nelson'
p41
F117.2833
sS'Greensboro'
p42
F79.791974999999994
sS'New York'
p43
F74.005972999999997
sS'Virginia Beach'
p44
F75.977985000000004
sS'New Albany'
p45
F85.824130999999994
sS'Charlotte'
p46
F80.843126999999996
sS'Alexandria'
p47
F77.046920999999998
sS'Cincinnati'
p48
F84.512020000000007
sS'Williamsburgh'
p49
F76.707457000000005
sS'Fresno'
p50
F119.772587
sS'Savannah'
p51
F81.099834000000001
sS'Edmonton'
p52
F113.490927
sS'Newburgh'
p53
F74.010418000000001
sS'Montpelier'
p54
F72.575387000000006
sS'Minneapolis'
p55
F93.266670000000005
sS'Hialeah'
p56
F80.278105999999994
sS'Long Beach'
p57
F118.195617
sS'Troy'
p58
F83.149929999999998
sS'Camden'
p59
F75.120000000000005
sS'Gary'
p60
F87.346427000000006
sS'Allegheny'
p61
F80.008775
sS'Seattle'
p62
F122.332071
sS'Pawtucket'
p63
F71.382555999999994
sS'Warren'
p64
F83.014652999999996
sS'San Juan'
p65
F66.105722
sS'Jackson'
p66
F90.184809999999999
sS'Nome'
p67
F165.40638899999999
sS'Austin'
p68
F97.743060999999997
sS'Washington'
p69
F77.036366000000001
sS'Toledo'
p70
F83.555211999999997
sS'Northern Liberties'
p71
F75.139944
sS'Chattanooga'
p72
F85.30968
sS'Denver'
p73
F104.984718
sS'Havre'
p74
F109.6833
sS'Calgary'
p75
F114.05810099999999
sS'Burlington'
p76
F73.212072000000006
sS'Cheyenne'
p77
F104.820246
sS'Fargo'
p78
F96.789803000000006
sS'Spokane'
p79
F117.426047
sS'Key West'
p80
F81.782590999999996
sS'Evansville'
p81
F87.571089999999998
sS'St. Joseph'
p82
F94.836540999999997
sS'Eugene'
p83
F123.086754
sS'East St. Louis'
p84
F90.127778000000006
sS'Elizabeth'
p85
F74.210701
sS'Passaic'
p86
F74.128476000000006
sS'Pittsburgh'
p87
F79.995885999999999
sS'Peoria'
p88
F89.588986000000006
sS'San Diego'
p89
F117.15725500000001
sS'Haverhill'
p90
F71.077280000000002
sS'Albuquerque'
p91
F106.60999099999999
sS'Dubuque'
p92
F90.664572000000007
sS'Sioux City'
p93
F96.400306999999998
sS'New Orleans'
p94
F90.071532000000005
sS'Honolulu'
p95
F157.85833299999999
sS'Hot Springs'
p96
F93.055179999999993
sS'Manchester'
p97
F71.455299999999994
sS'Scranton'
p98
F75.662412000000003
sS'Brockton'
p99
F71.018378999999996
sS'San Antonio'
p100
F98.493628000000001
sS'Lynchburg'
p101
F79.142246
sS'Rockford'
p102
F89.093995000000007
sS'Barnstable'
p103
F70.299999999999997
sS'Bridgeport'
p104
F73.195177000000001
sS'Wilmington'
p105
F77.944710000000001
sS'Baker'
p106
F121.81320100000001
sS'San Jose'
p107
F121.894955
sS'Leavenworth'
p108
F94.922464000000005
sS'Eastport'
p109
F72.731765999999993
sS'Marblehead'
p110
F70.857802000000007
sS'Youngstown'
p111
F80.649518999999998
sS'Charlescity'
p112
F92.672410999999997
sS'Hoboken'
p113
F74.032363000000004
sS'Newburyport'
p114
F70.877274999999997
sS'Buffalo'
p115
F78.878369000000006
sS'Fort Worth'
p116
F97.320849999999993
sS'Madison'
p117
F89.401229999999998
sS'El Centro'
p118
F115.563051
sS'Cohoes'
p119
F73.700119000000001
sS'Boston'
p120
F71.059773000000007
sS'Santa Fe'
p121
F105.937799
sS'Dayton'
p122
F84.191607000000005
sS'Tucson'
p123
F110.926479
sS'Terre Haute'
p124
F87.413909000000004
sS'Aurora'
p125
F104.83192
sS'Dorchester'
p126
F71.067605
sS'Holyoke'
p127
F72.616201000000004
sS'Las Vegas'
p128
F115.172816
sS'Knoxville'
p129
F83.920738999999998
sS'Quebec'
p130
F73.549136000000004
sS'Lockport'
p131
F78.690309999999997
sS'Huntington Beach'
p132
F117.999227
sS'Erie'
p133
F80.085059000000001
sS'Gardiner'
p134
F69.775322000000003
sS'Carlsbad'
p135
F117.350594
sS'Carlisle'
p136
F77.194999999999993
sS'Quincy'
p137
F71.002270999999993
sS'Dallas'
p138
F96.800450999999995
sS'Fremont'
p139
F121.988572
sS'Chicopee'
p140
F72.607866999999999
sS'Andover'
p141
F71.144400000000005
sS'St. Petersburg'
p142
F82.640000000000001
sS'Canton'
p143
F81.378600000000006
sS'Richmond'
p144
F77.436048
sS'Sitka'
p145
F135.33000000000001
sS'Louisville'
p146
F85.758455999999995
sS'Santa Ana'
p147
F117.867834
sS'Rochester'
p148
F77.610922000000002
sS'Riverside'
p149
F117.396156
sS'Richfield'
p150
F93.283001999999996
sS'Portland (OR)'
p151
F122.67620700000001
sS'Fort Lauderdale'
p152
F80.143378999999996
sS'Columbus'
p153
F82.998794000000004
sS'Indianapolis'
p154
F86.158068
sS'Danvers'
p155
F70.932122000000007
sS'Lawrence'
p156
F95.235249999999994
sS'South Bend'
p157
F86.251990000000006
sS'Baton Rouge'
p158
F91.140320000000003
sS'Wichita'
p159
F97.336111000000002
sS'Yonkers'
p160
F73.898747
sS'Brooklyn'
p161
F73.950000000000003
sS'Poughkeepsie'
p162
F73.920969999999997
sS'Salem'
p163
F123.035096
sS'Shreveport'
p164
F93.750179000000003
sS'Allentown'
p165
F75.490183000000002
sS'Akron'
p166
F81.519005000000007
sS'Mesa'
p167
F111.83147200000001
sS'Memphis'
p168
F90.04898
sS'Binghamton'
p169
F75.917974000000001
sS'Toronto'
p170
F79.383184
sS'Salt Lake City'
p171
F111.891047
sS'Lincoln'
p172
F96.681679000000003
sS'New Bedford'
p173
F70.934205000000006
sS'Moose Jaw'
p174
F105.534856
sS'Metairie'
p175
F90.152851999999996
sS'Houston'
p176
F95.369389999999996
sS'Moyamensing'
p177
F75.171138999999997
sS'Little Rock'
p178
F92.289595000000006
sS'Detroit'
p179
F83.045754000000002
sS'Anaheim'
p180
F117.91450399999999
sS'Portsmouth'
p181
F70.763099999999994
sS'Williamsport'
p182
F77.001079000000004
sS'Beverly'
p183
F70.880049
sS'Charleston'
p184
F79.930921999999995
sS'Fayetteville'
p185
F94.157426000000001
sS'Lewiston'
p186
F70.214776000000001
sS'Davenport'
p187
F90.577636999999996
sS'New Brunswick'
p188
F74.451819
sS'Montreal'
p189
F73.553991999999994
sS'Charlestown'
p190
F71.064633999999998
sS'Stockton'
p191
F121.29078
sS'Concord'
p192
F122.03107300000001
sS'Pottsville'
p193
F76.195498999999998
sS'Worcester'
p194
F71.802293000000006
sS'Bath'
p195
F77.318100000000001
sS'Helena'
p196
F112.02703099999999
sS'Altoona'
p197
F78.394735999999995
sS'Birmingham'
p198
F86.802490000000006
sS'Easton'
p199
F75.220731999999998
sS'Cleveland'
p200
F81.695408999999998
sS'Oklahoma City'
p201
F97.516428000000005
sS'Auburn'
p202
F85.480782000000005
sS'Somerville'
p203
F71.099497
sS'Oswego'
p204
F76.510497000000001
sS'Petersburg'
p205
F77.400400000000005
sS'Lancaster'
p206
F76.305800000000005
sS'Southwark'
p207
F75.163788999999994
sS'West Troy'
p208
F83.149929999999998
sS'Cumberland'
p209
F78.762518
sS'Chicago'
p210
F87.629797999999994
sS'Bismarck'
p211
F100.783739
sS'Lubbock'
p212
F101.855166
sS'Hudson'
p213
F73.790959000000001
sS'Providence'
p214
F71.412834000000004
sS'Philadelphia'
p215
F75.163788999999994
sS'Wilkes-Barre'
p216
F75.881307000000007
sS'Idaho Falls'
p217
F112.03396499999999
sS'Winnipeg'
p218
F97.137494000000004
sS'Vancouver'
p219
F123.113927
sS'Utica'
p220
F75.232664
sS'Paterson'
p221
F74.171811000000005
sS'Bay City'
p222
F83.888864999999996
sS'Syracuse'
p223
F76.147424000000001
sS'Springfield'
p224
F93.292299
sS'Saginaw'
p225
F83.950806999999998
sS'Lowell'
p226
F71.316171999999995
sS'Reading'
p227
F75.927199999999999
sS'Patterson'
p228
F121.129656
sS'Phoenix'
p229
F112.074037
sS'Norwich'
p230
F72.076400000000007
sS'Raleigh'
p231
F78.638615000000001
sS'Nashville'
p232
F86.783332999999999
sS'Klamath Falls'
p233
F121.78167000000001
sS'Amarillo'
p234
F101.83129700000001
sS'Duluth'
p235
F92.100485000000006
sS'Mobile'
p236
F88.043053999999998
sS'Sioux Falls'
p237
F96.700327000000001
sS'Grand Rapids'
p238
F85.668086000000002
sS'Hartford'
p239
F72.685092999999995
sS'Cambridge'
p240
F71.109733000000006
sS'Jacksonville'
p241
F81.655651000000006
sS'Johnstown'
p242
F78.921970000000002
sS'Lynn'
p243
F70.949494000000001
sS'Bakersfield'
p244
F119.01871199999999
sS'Roxbury'
p245
F71.091374999999999
sS'Omaha'
p246
F95.997988000000007
sS'Jersey City'
p247
F74.077641999999997
sS'Georgetown'
p248
F77.030000000000001
sS'Chelsea'
p249
F71.032827999999995
sS'Anchorage'
p250
F149.90027799999999
sS'Frederick'
p251
F77.410540999999995
sS'Kansas City'
p252
F94.578567000000007
sS'Plymouth'
p253
F70.6678
sS'Bangor'
p254
F68.777814000000006
sS'Lafayette'
p255
F92.019842999999995
sS'Ottawa'
p256
F75.697192999999999
sS'Milwaukee'
p257
F87.906474000000003
sS'Glendale'
p258
F118.25507500000001
sS'Wheeling'
p259
F80.720915000000005
sS'Grand Junction'
p260
F108.55064900000001
sS'Portland'
p261
F122.67620700000001
sS'Baltimore'
p262
F76.612189000000001
sS'Dover'
p263
F75.524699999999996
sS'Galveston'
p264
F94.797696000000002
sS'Trenton'
p265
F74.742937999999995
sS'Tacoma'
p266
F122.44429100000001
sS'Middleborough'
p267
F70.910770999999997
sS'Garland'
p268
F96.638883000000007
sS'Fall River'
p269
F71.155045000000001
sS'Taunton'
p270
F71.090299999999999
sS'Nashua'
p271
F71.467566000000005
sS'Kingston'
p272
F76.485954000000007
sS'Pierre'
p273
F100.439656
sS'Reno'
p274
F119.81380299999999
sS'Elmira'
p275
F76.807733999999996
sS'Harrisburg'
p276
F76.884417999999997
sS'Nantucket'
p277
F70.099451000000002
sS'Steubenville'
p278
F80.633964000000006
sS'North Providence'
p279
F71.467663999999999
sS'Des Moines'
p280
F93.609105999999997
sS'Juneau'
p281
F134.41972200000001
sS'Topeka'
p282
F95.689018000000004
sS'Corpus Christi'
p283
F97.396381000000005
sS'Oakland'
p284
F122.271114
sS'Schenectady'
p285
F73.939569000000006
sS'St. Paul'
p286
F93.089957999999996
s.