(dp0
I1840
(dp1
S'Albany'
p2
I33
sS'New London'
p3
I5
sS'Kensington'
p4
I22
sS'Montgomery'
p5
I2
sS'Newark'
p6
I17
sS'Steubenville'
p7
I4
sS'Warwick'
p8
I6
sS'Columbia'
p9
I4
sS'Zanesville'
p10
I4
sS'Waterbury'
p11
I0
sS'York'
p12
I4
sS'Gloucester'
p13
I6
sS'Easton'
p14
I4
sS'Spring Garden'
p15
I27
sS'Norfolk'
p16
I10
sS'Mobile'
p17
I12
sS'Lexington'
p18
I6
sS'Augusta'
p19
I5
sS'Newport'
p20
I8
sS'New York'
p21
I312
sS'New Albany'
p22
I4
sS'Alexandria'
p23
I8
sS'Cincinnati'
p24
I46
sS'Northern Liberties'
p25
I34
sS'Danvers'
p26
I5
sS'Washington'
p27
I23
sS'Andover'
p28
I5
sS'Savannah'
p29
I11
sS'Troy'
p30
I19
sS'Allegheny'
p31
I10
sS'Rochester'
p32
I20
sS'Knoxville'
p33
I0
sS'Petersburg'
p34
I11
sS'Reading'
p35
I8
sS'Dorchester'
p36
I4
sS'Pittsburgh'
p37
I21
sS'Haverhill'
p38
I4
sS'Sioux City'
p39
I0
sS'New Orleans'
p40
I102
sS'Lynchburg'
p41
I6
sS'Rockford'
p42
I0
sS'Barnstable'
p43
I4
sS'Wilmington'
p44
I8
sS'Marblehead'
p45
I5
sS'Youngstown'
p46
I0
sS'Charlescity'
p47
I11
sS'Newburyport'
p48
I7
sS'Buffalo'
p49
I18
sS'Portsmouth'
p50
I7
sS'Boston'
p51
I93
sS'Duluth'
p52
I0
sS'Terre Haute'
p53
I0
sS'Tacoma'
p54
I0
sS'Auburn'
p55
I5
sS'Carlisle'
p56
I4
sS'Middletown'
p57
I5
sS'Richmond'
p58
I20
sS'Providence'
p59
I23
sS'Louisville'
p60
I21
sS'Columbus'
p61
I6
sS'Dayton'
p62
I6
sS'Gardiner'
p63
I5
sS'Brooklyn'
p64
I36
sS'Lincoln'
p65
I0
sS'New Bedford'
p66
I12
sS'Roxbury'
p67
I9
sS'Moyamensing'
p68
I14
sS'Little Rock'
p69
I0
sS'Detroit'
p70
I9
sS'Cambridge'
p71
I8
sS'Beverly'
p72
I4
sS'Charleston'
p73
I29
sS'Fayetteville'
p74
I4
sS'Greensboro'
p75
I0
sS'Charlestown'
p76
I11
sS'Concord'
p77
I4
sS'Pottsville'
p78
I4
sS'Worcester'
p79
I7
sS'Bath'
p80
I5
sS'Salem'
p81
I15
sS'Cleveland'
p82
I6
sS'Lancaster'
p83
I8
sS'Southwark'
p84
I27
sS'Cumberland'
p85
I5
sS'Chicago'
p86
I4
sS'Hudson'
p87
I5
sS'Philadelphia'
p88
I93
sS'Utica'
p89
I12
sS'Paterson'
p90
I7
sS'Springfield'
p91
I10
sS'Lowell'
p92
I20
sS'Nashville'
p93
I6
sS'Harrisburg'
p94
I5
sS'Hartford'
p95
I9
sS'Lynn'
p96
I9
sS'Chattanooga'
p97
I0
sS'Georgetown'
p98
I7
sS'Frederick'
p99
I5
sS'Plymouth'
p100
I5
sS'Bangor'
p101
I8
sS'Wheeling'
p102
I7
sS'Baltimore'
p103
I102
sS'Dover'
p104
I6
sS'St. Louis'
p105
I16
sS'New Haven'
p106
I12
sS'Middleborough'
p107
I5
sS'Fall River'
p108
I6
sS'Taunton'
p109
I7
sS'Nashua'
p110
I6
sS'Nantucket'
p111
I9
sS'Portland'
p112
I15
sS'Schenectady'
p113
I6
ssI1841
(dp114
g2
I35
sg3
I5
sg4
I24
sg5
I3
sg6
I19
sg8
I6
sg10
I4
sg13
I6
sg14
I4
sg15
I30
sg16
I10
sg17
I13
sg18
I6
sg19
I5
sg20
I8
sg21
I332
sg22
I4
sg23
I8
sg24
I53
sg25
I35
sg26
I5
sg27
I25
sg29
I11
sg30
I20
sg31
I11
sg32
I22
sg33
I0
sg34
I11
sg35
I9
sg36
I4
sg37
I24
sS'Haverhill'
p115
I4
sS'Sioux City'
p116
I0
sg40
I103
sg41
I6
sg42
I0
sg46
I0
sg47
I12
sg48
I7
sg49
I20
sg71
I9
sg51
I97
sS'Terre Haute'
p117
I0
sg54
I0
sg55
I5
sg58
I21
sg59
I25
sg60
I23
sg61
I7
sg62
I6
sg64
I42
sg65
I0
sg66
I12
sg67
I10
sg68
I15
sS'Little Rock'
p118
I0
sg70
I10
sg50
I7
sg73
I30
sg75
I0
sg76
I12
sg77
I4
sg78
I4
sg79
I8
sg80
I5
sg81
I16
sg82
I7
sg83
I8
sg84
I28
sg86
I7
sg88
I96
sg89
I13
sg90
I7
sg91
I10
sg92
I21
sg93
I6
sg94
I5
sg95
I9
sg96
I10
sg97
I0
sg98
I7
sg44
I8
sg52
I0
sg101
I9
sg102
I7
sg103
I109
sg104
I6
sg105
I22
sg106
I13
sg108
I7
sg109
I7
sS'Nashua'
p119
I6
sg111
I9
sg112
I16
sg113
I6
ssI1842
(dp120
g2
I37
sg3
I5
sg4
I26
sg5
I4
sg6
I21
sg8
I6
sg10
I4
sg13
I6
sg14
I4
sg15
I33
sg16
I10
sg17
I14
sg18
I6
sg19
I5
sg20
I8
sg21
I352
sg22
I4
sg23
I8
sg24
I60
sg25
I36
sg26
I5
sg27
I27
sg29
I11
sg30
I21
sg31
I12
sg32
I24
sg33
I0
sg34
I11
sg35
I10
sg36
I4
sg37
I27
sg115
I4
sg116
I0
sg40
I104
sg41
I6
sg42
I0
sg46
I0
sg47
I13
sg48
I7
sg49
I22
sg71
I10
sg51
I101
sg117
I0
sg54
I0
sg55
I5
sg58
I22
sg59
I27
sg60
I25
sg61
I8
sg62
I6
sg64
I48
sg65
I0
sg66
I12
sg67
I11
sg68
I16
sg118
I0
sg70
I11
sg50
I7
sg73
I31
sg75
I0
sg76
I13
sg77
I4
sg78
I4
sg79
I9
sg80
I5
sg81
I17
sg82
I8
sg83
I8
sg84
I29
sg86
I10
sg88
I99
sg89
I14
sg90
I7
sg91
I10
sg92
I22
sg93
I6
sg94
I5
sg95
I9
sg96
I11
sg97
I0
sg98
I7
sg44
I8
sg52
I0
sg101
I10
sg102
I7
sg103
I116
sg104
I6
sg105
I28
sg106
I14
sg108
I8
sg109
I7
sg119
I6
sg111
I9
sg112
I17
sg113
I6
ssI1843
(dp121
g2
I39
sg3
I5
sg4
I28
sg5
I5
sg6
I23
sg8
I6
sg10
I4
sg13
I6
sg14
I4
sg15
I36
sg16
I10
sg17
I15
sg18
I6
sg19
I5
sg20
I8
sg21
I372
sg22
I4
sg23
I8
sg24
I67
sg25
I37
sg26
I5
sg27
I29
sg29
I11
sg30
I22
sg31
I13
sg32
I26
sg33
I0
sg34
I11
sg35
I11
sg36
I4
sg37
I30
sg115
I4
sg116
I0
sg40
I105
sg41
I6
sg42
I0
sg46
I0
sg47
I14
sg48
I7
sg49
I24
sg71
I11
sg51
I105
sg117
I0
sg54
I0
sg55
I5
sg58
I23
sg59
I29
sg60
I27
sg61
I9
sg62
I6
sg64
I54
sg65
I0
sg66
I12
sg67
I12
sg68
I17
sg118
I0
sg70
I12
sg50
I7
sg73
I32
sg75
I0
sg76
I14
sg77
I4
sg78
I4
sg79
I10
sg80
I5
sg81
I18
sg82
I9
sg83
I8
sg84
I30
sg86
I13
sg88
I102
sg89
I15
sg90
I7
sg91
I10
sg92
I23
sg93
I6
sg94
I5
sg95
I9
sg96
I12
sg97
I0
sg98
I7
sg44
I8
sg52
I0
sg101
I11
sg102
I7
sg103
I123
sg104
I6
sg105
I34
sg106
I15
sg108
I9
sg109
I7
sg119
I6
sg111
I9
sg112
I18
sg113
I6
ssI1844
(dp122
g2
I41
sg3
I5
sg4
I30
sg5
I6
sg6
I25
sg8
I6
sg10
I4
sg13
I6
sg14
I4
sg15
I39
sg16
I10
sg17
I16
sg18
I6
sg19
I5
sg20
I8
sg21
I392
sg22
I4
sg23
I8
sg24
I74
sg25
I38
sg26
I5
sg27
I31
sg29
I11
sg30
I23
sg31
I14
sg32
I28
sg33
I0
sg34
I11
sg35
I12
sg36
I4
sg37
I33
sg115
I5
sg116
I0
sg40
I106
sg41
I6
sg42
I0
sg46
I0
sg47
I15
sg48
I7
sg49
I26
sg71
I12
sg51
I109
sg117
I0
sg54
I0
sg55
I5
sg58
I24
sg59
I31
sg60
I29
sg61
I10
sg62
I6
sg64
I60
sg65
I0
sg66
I12
sg67
I13
sg68
I18
sg118
I0
sg70
I13
sg50
I7
sg73
I33
sg75
I0
sg76
I15
sg77
I4
sg78
I4
sg79
I11
sg80
I5
sg81
I19
sg82
I10
sg83
I8
sg84
I31
sg86
I16
sg88
I105
sg89
I16
sg90
I7
sg91
I10
sg92
I24
sg93
I6
sg94
I5
sg95
I9
sg96
I13
sg97
I0
sg98
I7
sg44
I8
sg52
I0
sg101
I12
sg102
I7
sg103
I130
sg104
I6
sg105
I40
sg106
I16
sg108
I10
sg109
I7
sg119
I6
sg111
I9
sg112
I19
sg113
I6
ssI1845
(dp123
g2
I43
sg3
I5
sg4
I32
sg5
I7
sg6
I27
sg8
I6
sg10
I4
sg13
I6
sg14
I4
sg15
I42
sg16
I10
sg17
I17
sg18
I6
sg19
I5
sg20
I8
sg21
I412
sg22
I4
sg23
I8
sg24
I81
sg25
I39
sg26
I5
sg27
I33
sg29
I11
sg30
I24
sg31
I15
sg32
I30
sg33
I0
sg34
I11
sg35
I13
sg36
I4
sg37
I36
sg115
I5
sg116
I0
sg40
I107
sg41
I6
sg42
I0
sg46
I0
sg47
I16
sg48
I7
sg49
I28
sg71
I13
sg51
I113
sg117
I0
sg54
I0
sg55
I5
sg58
I25
sg59
I33
sg60
I31
sg61
I11
sg62
I6
sg64
I66
sg65
I0
sg66
I12
sg67
I14
sg68
I19
sg118
I0
sg70
I14
sg50
I7
sg73
I34
sg75
I0
sg76
I16
sg77
I4
sg78
I4
sg79
I12
sg80
I5
sg81
I20
sg82
I11
sg83
I8
sg84
I32
sg86
I19
sg88
I108
sg89
I17
sg90
I7
sg91
I10
sg92
I25
sg93
I6
sg94
I5
sg95
I9
sg96
I14
sg97
I0
sg98
I7
sg44
I8
sg52
I0
sg101
I13
sg102
I7
sg103
I137
sg104
I6
sg105
I46
sg106
I17
sg108
I11
sg109
I7
sg119
I6
sg111
I9
sg112
I20
sg113
I6
ssI1846
(dp124
g2
I45
sg3
I5
sg4
I34
sg5
I8
sg6
I29
sg8
I6
sg10
I4
sg13
I6
sg14
I4
sg15
I45
sg16
I10
sg17
I18
sg18
I6
sg19
I5
sg20
I8
sg21
I432
sg22
I4
sg23
I8
sg24
I88
sg25
I40
sg26
I5
sg27
I35
sg29
I11
sg30
I25
sg31
I16
sg32
I32
sg33
I0
sg34
I11
sg35
I14
sg36
I4
sg37
I39
sg115
I5
sg116
I0
sg40
I108
sg41
I6
sg42
I0
sg46
I0
sg47
I17
sg48
I7
sg49
I30
sg71
I14
sg51
I117
sg117
I0
sg54
I0
sg55
I5
sg58
I26
sg59
I35
sg60
I33
sg61
I12
sg62
I6
sg64
I72
sg65
I0
sg66
I12
sg67
I15
sg68
I20
sg118
I0
sg70
I15
sg50
I7
sg73
I35
sg75
I0
sg76
I17
sg77
I4
sg78
I4
sg79
I13
sg80
I5
sg81
I21
sg82
I12
sg83
I8
sg84
I33
sg86
I22
sg88
I111
sg89
I18
sg90
I7
sg91
I10
sg92
I26
sg93
I6
sg94
I5
sg95
I9
sg96
I15
sg97
I0
sg98
I7
sg44
I8
sg52
I0
sg101
I14
sg102
I7
sg103
I144
sg104
I6
sg105
I52
sg106
I18
sg108
I12
sg109
I7
sg119
I6
sg111
I9
sg112
I21
sg113
I6
ssI1847
(dp125
g2
I47
sg3
I5
sg4
I36
sg5
I9
sg6
I31
sg8
I6
sg10
I4
sg13
I6
sg14
I4
sg15
I48
sg16
I10
sg17
I19
sg18
I6
sg19
I5
sg20
I8
sg21
I452
sg22
I4
sg23
I8
sg24
I95
sg25
I41
sg26
I5
sg27
I37
sg29
I11
sg30
I26
sg31
I17
sg32
I34
sg33
I0
sg34
I11
sg35
I15
sg36
I4
sg37
I42
sg115
I5
sg116
I0
sg40
I109
sg41
I6
sg42
I0
sg46
I0
sg47
I18
sg48
I7
sg49
I32
sg71
I15
sg51
I121
sg117
I0
sg54
I0
sg55
I5
sg58
I27
sg59
I37
sg60
I35
sg61
I13
sg62
I6
sg64
I78
sg65
I0
sg66
I12
sg67
I16
sg68
I21
sg118
I0
sg70
I16
sg50
I7
sg73
I36
sg75
I0
sg76
I18
sg77
I4
sg78
I4
sg79
I14
sg80
I5
sg81
I22
sg82
I13
sg83
I8
sg84
I34
sg86
I25
sg88
I114
sg89
I19
sg90
I7
sg91
I10
sg92
I27
sg93
I6
sg94
I5
sg95
I9
sg96
I16
sg97
I0
sg98
I7
sg44
I8
sg52
I0
sg101
I15
sg102
I7
sg103
I151
sg104
I6
sg105
I58
sg106
I19
sg108
I13
sg109
I7
sg119
I6
sg111
I9
sg112
I22
sg113
I6
ssI1848
(dp126
g2
I49
sg3
I5
sg4
I38
sg5
I10
sg6
I33
sg8
I6
sg10
I4
sg13
I6
sg14
I4
sg15
I51
sg16
I10
sg17
I20
sg18
I6
sg19
I5
sg20
I8
sg21
I472
sg22
I4
sg23
I8
sg24
I102
sg25
I42
sg26
I5
sg27
I39
sg29
I11
sg30
I27
sg31
I18
sg32
I36
sg33
I0
sg34
I11
sg35
I16
sg36
I4
sg37
I45
sg115
I6
sg116
I0
sg40
I110
sg41
I6
sg42
I0
sg46
I0
sg47
I19
sg48
I7
sg49
I34
sg71
I16
sg51
I125
sg117
I0
sg54
I0
sg55
I5
sg58
I28
sg59
I39
sg60
I37
sg61
I14
sg62
I6
sg64
I84
sg65
I0
sg66
I12
sg67
I17
sg68
I22
sg118
I0
sg70
I17
sg50
I7
sg73
I37
sg75
I0
sg76
I19
sg77
I4
sg78
I4
sg79
I15
sg80
I5
sg81
I23
sg82
I14
sg83
I8
sg84
I35
sg86
I28
sg88
I117
sg89
I20
sg90
I7
sg91
I10
sg92
I28
sg93
I6
sg94
I5
sg95
I9
sg96
I17
sg97
I0
sg98
I7
sg44
I8
sg52
I0
sg101
I16
sg102
I7
sg103
I158
sg104
I6
sg105
I64
sg106
I20
sg108
I14
sg109
I7
sg119
I6
sg111
I9
sg112
I23
sg113
I6
ssI1849
(dp127
g2
I51
sg3
I5
sg4
I40
sg5
I11
sg6
I35
sg8
I6
sg10
I4
sg13
I6
sg14
I4
sg15
I54
sg16
I10
sg17
I21
sg18
I6
sg19
I5
sg20
I8
sg21
I492
sg22
I4
sg23
I8
sg24
I109
sg25
I43
sg26
I5
sg27
I41
sg29
I11
sg30
I28
sg31
I19
sg32
I38
sg33
I0
sg34
I11
sg35
I17
sg36
I4
sg37
I48
sg115
I6
sg116
I0
sg40
I111
sg41
I6
sg42
I0
sg46
I0
sg47
I20
sg48
I7
sg49
I36
sg71
I17
sg51
I129
sg117
I0
sg54
I0
sg55
I5
sg58
I29
sg59
I41
sg60
I39
sg61
I15
sg62
I6
sg64
I90
sg65
I0
sg66
I12
sg67
I18
sg68
I23
sg118
I0
sg70
I18
sg50
I7
sg73
I38
sg75
I0
sg76
I20
sg77
I4
sg78
I4
sg79
I16
sg80
I5
sg81
I24
sg82
I15
sg83
I8
sg84
I36
sg86
I31
sg88
I120
sg89
I21
sg90
I7
sg91
I10
sg92
I29
sg93
I6
sg94
I5
sg95
I9
sg96
I18
sg97
I0
sg98
I7
sg44
I8
sg52
I0
sg101
I17
sg102
I7
sg103
I165
sg104
I6
sg105
I70
sg106
I21
sg108
I15
sg109
I7
sg119
I6
sg111
I9
sg112
I24
sg113
I6
ssI1850
(dp128
g2
I50
sS'New London'
p129
I8
sg4
I46
sS'Montgomery'
p130
I8
sg6
I38
sS'Covington'
p131
I9
sS'Warwick'
p132
I7
sS'San Francisco'
p133
I35
sS'Zanesville'
p134
I7
sS'Sacramento'
p135
I7
sg11
I0
sS'Atlanta'
p136
I3
sS'Charlestown'
p137
I17
sS'Easton'
p138
I7
sg15
I58
sS'Norfolk'
p139
I14
sS'Mobile'
p140
I20
sS'New Albany'
p141
I8
sS'Lexington'
p142
I8
sS'Augusta'
p143
I8
sS'Newport'
p144
I9
sg21
I515
sS'Gloucester'
p145
I7
sS'Charlotte'
p146
I1
sS'Alexandria'
p147
I8
sg24
I115
sS'Williamsburgh'
p148
I30
sg59
I41
sS'Danvers'
p149
I8
sg27
I40
sS'Savannah'
p150
I15
sg30
I28
sS'Manchester'
p151
I13
sS'Allegheny'
p152
I21
sS'Lynchburg'
p153
I8
sg32
I36
sg33
I2
sS'Petersburg'
p154
I14
sS'Reading'
p155
I15
sS'Dorchester'
p156
I7
sg37
I46
sg115
I6
sg39
I0
sS'Salem'
p157
I20
sS'Los Angeles'
p158
I2
sS'Camden'
p159
I9
sS'San Antonio'
p160
I4
sS'Syracuse'
p161
I22
sg42
I0
sg46
I2
sS'Charlescity'
p162
I17
sS'Newburyport'
p163
I9
sg49
I42
sS'Madison'
p164
I8
sS'Portsmouth'
p165
I8
sg51
I136
sS'Dayton'
p166
I10
sg53
I4
sg54
I0
sS'Auburn'
p167
I9
sS'Chicopee'
p168
I8
sg58
I27
sg25
I47
sg60
I43
sS'Columbus'
p169
I17
sS'Indianapolis'
p170
I8
sS'Lawrence'
p171
I8
sg64
I96
sS'Poughkeepsie'
p172
I11
sS'Memphis'
p173
I8
sS'North Providence'
p174
I7
sg65
I0
sS'New Bedford'
p175
I16
sS'Roxbury'
p176
I18
sS'Moyamensing'
p177
I26
sg69
I2
sS'Detroit'
p178
I21
sS'Cambridge'
p179
I15
sg73
I42
sS'Austin'
p180
I1
sg75
I0
sS'Concord'
p181
I8
sS'Pottsville'
p182
I7
sS'Worcester'
p183
I17
sS'Bath'
p184
I8
sg40
I116
sS'Cleveland'
p185
I17
sg119
I6
sS'Lancaster'
p186
I12
sg84
I38
sS'West Troy'
p187
I7
sS'Chicago'
p188
I29
sg88
I121
sS'Utica'
p189
I17
sS'Paterson'
p190
I11
sS'Springfield'
p191
I11
sg92
I33
sS'Nashville'
p192
I10
sS'Harrisburg'
p193
I7
sS'Hartford'
p194
I13
sS'Jacksonville'
p195
I1
sS'Lynn'
p196
I14
sg97
I0
sS'Georgetown'
p197
I8
sS'Wilmington'
p198
I7
sg52
I0
sS'Bangor'
p199
I14
sS'Lafayette'
p200
I14
sS'Wheeling'
p201
I11
sg103
I169
sS'Dover'
p202
I8
sg105
I77
sS'Houston'
p203
I3
sS'New Haven'
p204
I20
sS'Fall River'
p205
I11
sS'Taunton'
p206
I10
sS'Oswego'
p207
I12
sS'Nantucket'
p208
I8
sS'Milwaukee'
p209
I20
sg112
I20
sS'Schenectady'
p210
I8
ssI1851
(dp211
g2
I51
sg129
I8
sg5
I8
sg6
I41
sg131
I10
sg133
I37
sg135
I8
sg11
I1
sg136
I4
sg137
I18
sg139
I14
sg140
I21
sg141
I8
sS'Lexington'
p212
I9
sg143
I8
sg144
I9
sg21
I545
sg145
I7
sS'Charlotte'
p213
I1
sg147
I8
sg24
I120
sg150
I16
sg27
I42
sg30
I29
sg159
I10
sg152
I22
sg32
I37
sg33
I2
sg154
I14
sg155
I16
sg156
I7
sg37
I46
sg115
I6
sg116
I0
sg157
I20
sg158
I2
sg151
I14
sg160
I9
sg161
I23
sg42
I1
sg46
I2
sg162
I18
sg163
I9
sg49
I46
sS'Madison'
p214
I8
sg179
I16
sg51
I140
sg166
I11
sg117
I4
sg54
I0
sg58
I28
sg59
I42
sg60
I46
sg169
I17
sg170
I9
sg171
I9
sg64
I113
sg172
I11
sg173
I9
sg174
I7
sg65
I0
sg175
I17
sg176
I19
sg118
I2
sg178
I23
sg73
I42
sS'Austin'
p215
I1
sg75
I0
sg181
I8
sg183
I18
sg167
I9
sg40
I121
sg185
I20
sg119
I6
sg186
I13
sg188
I37
sg88
I165
sg189
I18
sg190
I12
sg191
I11
sg92
I33
sg192
I11
sg193
I8
sg194
I14
sg196
I15
sg97
I0
sg198
I7
sg52
I0
sg199
I14
sg201
I11
sg103
I173
sg105
I85
sg203
I3
sg204
I22
sg205
I11
sg206
I11
sg207
I12
sg209
I23
sg112
I21
sg210
I8
ssI1852
(dp216
g2
I52
sg129
I8
sg5
I8
sg6
I44
sg131
I11
sg133
I39
sg135
I9
sg11
I2
sg136
I5
sg137
I19
sg139
I14
sg140
I22
sg141
I8
sg212
I10
sg143
I8
sg144
I9
sg21
I575
sg145
I7
sg213
I1
sg147
I8
sg24
I125
sg150
I17
sg27
I44
sg30
I30
sg159
I11
sg152
I23
sg32
I38
sg33
I2
sg154
I14
sg155
I17
sg156
I7
sg37
I46
sg115
I7
sg116
I0
sg157
I20
sg158
I2
sg151
I15
sg160
I14
sg161
I24
sg42
I2
sg46
I2
sg162
I19
sg163
I9
sg49
I50
sg214
I8
sg179
I17
sg51
I144
sg166
I12
sg117
I4
sg54
I0
sg58
I29
sg59
I43
sg60
I49
sg169
I17
sg170
I10
sg171
I10
sg64
I130
sg172
I11
sg173
I10
sg174
I7
sg65
I0
sg175
I18
sg176
I20
sg118
I2
sg178
I25
sg73
I42
sg215
I1
sg75
I0
sg181
I8
sg183
I19
sg167
I9
sg40
I126
sg185
I23
sg119
I6
sg186
I14
sg188
I45
sg88
I209
sg189
I19
sg190
I13
sg191
I11
sg92
I33
sg192
I12
sg193
I9
sg194
I15
sg196
I16
sg97
I0
sg198
I7
sg52
I0
sg199
I14
sg201
I11
sg103
I177
sg105
I93
sg203
I3
sg204
I24
sg205
I11
sg206
I12
sg207
I12
sg209
I26
sg112
I22
sg210
I8
ssI1853
(dp217
g2
I53
sg129
I8
sg5
I8
sg6
I47
sg131
I12
sg133
I41
sg135
I10
sg11
I3
sg136
I6
sg137
I20
sg139
I14
sg140
I23
sg141
I8
sg212
I11
sg143
I8
sg144
I9
sg21
I605
sg145
I7
sg213
I1
sg147
I8
sg24
I130
sg150
I18
sg27
I46
sg30
I31
sg159
I12
sg152
I24
sg32
I39
sg33
I2
sg154
I14
sg155
I18
sg156
I7
sg37
I46
sg115
I7
sg116
I0
sg157
I20
sg158
I2
sg151
I16
sg160
I19
sg161
I25
sg42
I3
sg46
I2
sg162
I20
sg163
I9
sg49
I54
sg214
I8
sg179
I18
sg51
I148
sg166
I13
sg117
I4
sg54
I0
sg58
I30
sg59
I44
sg60
I52
sg169
I17
sg170
I11
sg171
I11
sg64
I147
sg172
I11
sg173
I11
sg174
I7
sg65
I0
sg175
I19
sg176
I21
sg118
I2
sg178
I27
sg73
I42
sg215
I2
sg75
I0
sg181
I8
sg183
I20
sg167
I9
sg40
I131
sg185
I26
sg119
I6
sg186
I15
sg188
I53
sg88
I253
sg189
I20
sg190
I14
sg191
I11
sg92
I33
sg192
I13
sg193
I10
sg194
I16
sg196
I17
sg97
I0
sg198
I7
sg52
I0
sg199
I14
sg201
I11
sg103
I181
sg105
I101
sg203
I3
sg204
I26
sg205
I11
sg206
I13
sg207
I12
sg209
I29
sg112
I23
sg210
I8
ssI1854
(dp218
g2
I54
sg129
I8
sg5
I8
sg6
I50
sg131
I13
sg133
I43
sg135
I11
sg11
I4
sg136
I7
sg137
I21
sg139
I14
sg140
I24
sg141
I8
sg212
I12
sg143
I8
sg144
I9
sg21
I635
sg145
I7
sg213
I2
sg147
I8
sg24
I135
sg150
I19
sg27
I48
sg30
I32
sg159
I13
sg152
I25
sg32
I40
sg33
I2
sg154
I14
sg155
I19
sg156
I7
sg37
I46
sg115
I7
sg116
I0
sg157
I20
sg158
I2
sg151
I17
sg160
I24
sg161
I26
sg42
I4
sg46
I2
sg162
I21
sg163
I9
sg49
I58
sg214
I8
sg179
I19
sg51
I152
sg166
I14
sg117
I4
sg54
I0
sg58
I31
sg59
I45
sg60
I55
sg169
I17
sg170
I12
sg171
I12
sg64
I164
sg172
I11
sg173
I12
sg174
I7
sg65
I0
sg175
I20
sg176
I22
sg118
I2
sg178
I29
sg73
I42
sg215
I2
sg75
I0
sg181
I8
sg183
I21
sg167
I9
sg40
I136
sg185
I29
sg119
I6
sg186
I16
sg188
I61
sg88
I297
sg189
I21
sg190
I15
sg191
I11
sg92
I33
sg192
I14
sg193
I11
sg194
I17
sg196
I18
sg97
I0
sg198
I7
sg52
I0
sg199
I14
sg201
I11
sg103
I185
sg105
I109
sg203
I3
sg204
I28
sg205
I11
sg206
I14
sg207
I12
sg209
I32
sg112
I24
sg210
I8
ssI1855
(dp219
g2
I55
sg129
I8
sg5
I8
sg6
I53
sg131
I14
sg133
I45
sg135
I12
sg11
I5
sg136
I8
sg137
I22
sg139
I14
sg140
I25
sg141
I8
sg212
I13
sg143
I8
sg144
I9
sg21
I665
sg145
I7
sg213
I2
sg147
I8
sg24
I140
sg150
I20
sg27
I50
sg30
I33
sg159
I14
sg152
I26
sg32
I41
sg33
I2
sg154
I14
sg155
I20
sg156
I7
sg37
I46
sg115
I7
sg116
I0
sg157
I20
sg158
I2
sg151
I18
sg160
I29
sg161
I27
sg42
I5
sg46
I2
sg162
I22
sg163
I9
sg49
I62
sg214
I8
sg179
I20
sg51
I156
sg166
I15
sg117
I4
sg54
I0
sg58
I32
sg59
I46
sg60
I58
sg169
I17
sg170
I13
sg171
I13
sg64
I181
sg172
I11
sg173
I13
sg174
I7
sg65
I0
sg175
I21
sg176
I23
sg118
I2
sg178
I31
sg73
I42
sg215
I2
sg75
I0
sg181
I8
sg183
I22
sg167
I9
sg40
I141
sg185
I32
sg119
I6
sg186
I17
sg188
I69
sg88
I341
sg189
I22
sg190
I16
sg191
I11
sg92
I33
sg192
I15
sg193
I12
sg194
I18
sg196
I19
sg97
I0
sg198
I7
sg52
I0
sg199
I14
sg201
I11
sg103
I189
sg105
I117
sg203
I3
sg204
I30
sg205
I11
sg206
I15
sg207
I12
sg209
I35
sg112
I25
sg210
I8
ssI1856
(dp220
g2
I56
sg129
I8
sg5
I8
sg6
I56
sg131
I15
sg133
I47
sg135
I13
sg11
I6
sg136
I9
sg137
I23
sg139
I14
sg140
I26
sg141
I8
sg212
I14
sg143
I8
sg144
I9
sg21
I695
sg145
I7
sg213
I2
sg147
I8
sg24
I145
sg150
I21
sg27
I52
sg30
I34
sg159
I15
sg152
I27
sg32
I42
sg33
I2
sg154
I14
sg155
I21
sg156
I7
sg37
I46
sg115
I8
sg116
I0
sg157
I20
sg158
I2
sg151
I19
sg160
I34
sg161
I28
sg42
I6
sg46
I2
sg162
I23
sg163
I9
sg49
I66
sg214
I8
sg179
I21
sg51
I160
sg166
I16
sg117
I4
sg54
I0
sg58
I33
sg59
I47
sg60
I61
sg169
I17
sg170
I14
sg171
I14
sg64
I198
sg172
I11
sg173
I14
sg174
I7
sg65
I0
sg175
I22
sg176
I24
sg118
I2
sg178
I33
sg73
I42
sg215
I3
sg75
I0
sg181
I8
sg183
I23
sg167
I9
sg40
I146
sg185
I35
sg119
I6
sg186
I18
sg188
I77
sg88
I385
sg189
I23
sg190
I17
sg191
I11
sg92
I33
sg192
I16
sg193
I13
sg194
I19
sg196
I20
sg97
I0
sg198
I7
sg52
I0
sg199
I14
sg201
I11
sg103
I193
sg105
I125
sg203
I3
sg204
I32
sg205
I11
sg206
I16
sg207
I12
sg209
I38
sg112
I26
sg210
I8
ssI1857
(dp221
g2
I57
sg129
I8
sg5
I8
sg6
I59
sg131
I16
sg133
I49
sg135
I14
sg11
I7
sg136
I10
sg137
I24
sg139
I14
sg140
I27
sg141
I8
sg212
I15
sg143
I8
sg144
I9
sg21
I725
sg145
I7
sg213
I2
sg147
I8
sg24
I150
sg150
I22
sg27
I54
sg30
I35
sg159
I16
sg152
I28
sg32
I43
sg33
I2
sg154
I14
sg155
I22
sg156
I7
sg37
I46
sg115
I8
sg116
I0
sg157
I20
sg158
I2
sg151
I20
sg160
I39
sg161
I29
sg42
I7
sg46
I2
sg162
I24
sg163
I9
sg49
I70
sg214
I8
sg179
I22
sg51
I164
sg166
I17
sg117
I4
sg54
I0
sg58
I34
sg59
I48
sg60
I64
sg169
I17
sg170
I15
sg171
I15
sg64
I215
sg172
I11
sg173
I15
sg174
I7
sg65
I0
sg175
I23
sg176
I25
sg118
I2
sg178
I35
sg73
I42
sg215
I3
sg75
I0
sg181
I8
sg183
I24
sg167
I9
sg40
I151
sg185
I38
sg119
I6
sg186
I19
sg188
I85
sg88
I429
sg189
I24
sg190
I18
sg191
I11
sg92
I33
sg192
I17
sg193
I14
sg194
I20
sg196
I21
sg97
I0
sg198
I7
sg52
I0
sg199
I14
sg201
I11
sg103
I197
sg105
I133
sg203
I3
sg204
I34
sg205
I11
sg206
I17
sg207
I12
sg209
I41
sg112
I27
sg210
I8
ssI1858
(dp222
g2
I58
sg129
I8
sg5
I8
sg6
I62
sg131
I17
sg133
I51
sg135
I15
sg11
I8
sg136
I11
sg137
I25
sg139
I14
sg140
I28
sg141
I8
sg212
I16
sg143
I8
sg144
I9
sg21
I755
sg145
I7
sg213
I2
sg147
I8
sg24
I155
sg150
I23
sg27
I56
sg30
I36
sg159
I17
sg152
I29
sg32
I44
sg33
I2
sg154
I14
sg155
I23
sg156
I7
sg37
I46
sg115
I8
sg116
I0
sg157
I20
sg158
I2
sg151
I21
sg160
I44
sg161
I30
sg42
I8
sg46
I2
sg162
I25
sg163
I9
sg49
I74
sg214
I8
sg179
I23
sg51
I168
sg166
I18
sg117
I4
sg54
I0
sg58
I35
sg59
I49
sg60
I67
sg169
I17
sg170
I16
sg171
I16
sg64
I232
sg172
I11
sg173
I16
sg174
I7
sg65
I0
sg175
I24
sg176
I26
sg118
I2
sg178
I37
sg73
I42
sg215
I3
sg75
I0
sg181
I8
sg183
I25
sg167
I9
sg40
I156
sg185
I41
sg119
I6
sg186
I20
sg188
I93
sg88
I473
sg189
I25
sg190
I19
sg191
I11
sg92
I33
sg192
I18
sg193
I15
sg194
I21
sg196
I22
sg97
I0
sg198
I7
sg52
I0
sg199
I14
sg201
I11
sg103
I201
sg105
I141
sg203
I3
sg204
I36
sg205
I11
sg206
I18
sg207
I12
sg209
I44
sg112
I28
sg210
I8
ssI1859
(dp223
g2
I59
sg129
I8
sg5
I8
sg6
I65
sg131
I18
sg133
I53
sg135
I16
sg11
I9
sg136
I12
sg137
I26
sg139
I14
sg140
I29
sg141
I8
sg212
I17
sg143
I8
sg144
I9
sg21
I785
sg145
I7
sg213
I2
sg147
I8
sg24
I160
sg150
I24
sg27
I58
sg30
I37
sg159
I18
sg152
I30
sg32
I45
sg33
I2
sg154
I14
sg155
I24
sg156
I7
sg37
I46
sg115
I8
sg116
I0
sg157
I20
sg158
I2
sg151
I22
sg160
I49
sg161
I31
sg42
I9
sg46
I2
sg162
I26
sg163
I9
sg49
I78
sg214
I8
sg179
I24
sg51
I172
sg166
I19
sg117
I4
sg54
I0
sg58
I36
sg59
I50
sg60
I70
sg169
I17
sg170
I17
sg171
I17
sg64
I249
sg172
I11
sg173
I17
sg174
I7
sg65
I0
sg175
I25
sg176
I27
sg118
I2
sg178
I39
sg73
I42
sg215
I4
sg75
I0
sg181
I8
sg183
I26
sg167
I9
sg40
I161
sg185
I44
sg119
I6
sg186
I21
sg188
I101
sg88
I517
sg189
I26
sg190
I20
sg191
I11
sg92
I33
sg192
I19
sg193
I16
sg194
I22
sg196
I23
sg97
I0
sg198
I7
sg52
I0
sg199
I14
sg201
I11
sg103
I205
sg105
I149
sg203
I3
sg204
I38
sg205
I11
sg206
I19
sg207
I12
sg209
I47
sg112
I29
sg210
I8
ssI1860
(dp224
S'Albany'
p225
I62
sS'New London'
p226
I10
sg5
I8
sg6
I71
sS'Covington'
p227
I16
sS'Toledo'
p228
I13
sg133
I56
sS'Sacramento'
p229
I13
sS'Waterbury'
p230
I10
sg136
I9
sS'Gloucester'
p231
I10
sS'Norfolk'
p232
I14
sS'Mobile'
p233
I29
sg212
I18
sS'Augusta'
p234
I12
sS'Newport'
p235
I10
sS'New Albany'
p236
I12
sg213
I2
sS'Alexandria'
p237
I12
sg24
I161
sS'Savannah'
p238
I22
sg27
I61
sS'Minneapolis'
p239
I3
sS'Troy'
p240
I39
sS'Manchester'
p241
I20
sS'Allegheny'
p242
I28
sS'Rochester'
p243
I48
sg215
I4
sS'Newburgh'
p244
I12
sg33
I5
sS'Petersburg'
p245
I18
sS'Evansville'
p246
I11
sS'Elizabeth'
p247
I11
sg37
I49
sS'Peoria'
p248
I14
sS'San Diego'
p249
I1
sS'Haverhill'
p250
I9
sS'Dubuque'
p251
I13
sg39
I0
sg21
I813
sg158
I4
sS'Camden'
p252
I14
sg160
I51
sS'Syracuse'
p253
I28
sg42
I7
sS'Bridgeport'
p254
I12
sg46
I2
sS'Charlescity'
p255
I25
sS'Hoboken'
p256
I9
sS'Newburyport'
p257
I13
sg49
I81
sg214
I6
sS'Cambridge'
p258
I26
sg51
I177
sS'Lawrence'
p259
I17
sg53
I8
sS'Lockport'
p260
I10
sg54
I0
sS'Quincy'
p261
I13
sS'Portland (OR)'
p262
I3
sS'Richmond'
p263
I37
sS'Providence'
p264
I50
sS'Louisville'
p265
I68
sg40
I168
sg169
I18
sg170
I18
sS'Dayton'
p266
I20
sS'Brooklyn'
p267
I266
sS'Poughkeepsie'
p268
I14
sg173
I22
sS'North Providence'
p269
I11
sg65
I0
sS'New Bedford'
p270
I22
sS'Roxbury'
p271
I25
sS'Trenton'
p272
I17
sg69
I3
sg178
I45
sS'Charleston'
p273
I40
sS'Davenport'
p274
I11
sS'New Brunswick'
p275
I11
sg75
I0
sS'Charlestown'
p276
I25
sS'Concord'
p277
I10
sS'Worcester'
p278
I24
sS'Auburn'
p279
I10
sS'Salem'
p280
I22
sg185
I43
sS'Oswego'
p281
I16
sS'Lancaster'
p282
I17
sg188
I112
sg88
I565
sS'Utica'
p283
I22
sS'Paterson'
p284
I19
sS'Springfield'
p285
I15
sS'Lowell'
p286
I36
sS'Reading'
p287
I23
sS'Norwich'
p288
I14
sg192
I16
sS'Harrisburg'
p289
I13
sS'Hartford'
p290
I26
sg195
I2
sS'Lynn'
p291
I19
sg97
I0
sS'Omaha'
p292
I2
sS'Jersey City'
p293
I29
sS'Chelsea'
p294
I13
sS'Wilmington'
p295
I9
sS'Kansas City'
p296
I4
sg52
I0
sS'Bangor'
p297
I16
sS'Wheeling'
p298
I14
sg103
I212
sS'Dorchester'
p299
I9
sg105
I160
sg203
I5
sS'New Haven'
p300
I39
sS'Fall River'
p301
I14
sS'Taunton'
p302
I15
sS'Nashua'
p303
I10
sg209
I45
sS'Portland'
p304
I26
sS'Oakland'
p305
I2
sS'Schenectady'
p306
I9
sS'St. Paul'
p307
I10
ssI1861
(dp308
g225
I63
sg5
I8
sg6
I74
sg227
I17
sg228
I15
sg133
I65
sg229
I13
sg11
I10
sg136
I10
sg236
I12
sg232
I15
sg233
I29
sg212
I19
sg234
I12
sg235
I11
sg21
I826
sg231
I11
sg213
I2
sg24
I167
sg238
I23
sg27
I66
sg239
I4
sg240
I40
sg252
I15
sg242
I31
sg243
I49
sg215
I4
sg244
I13
sg33
I5
sg245
I18
sg246
I12
sg247
I12
sg37
I53
sg248
I15
sg249
I1
sg251
I14
sg116
I0
sg40
I170
sg158
I4
sg241
I20
sg160
I53
sg253
I30
sg42
I7
sg254
I13
sg46
I3
sg255
I25
sg256
I10
sg49
I85
sg214
I6
sg258
I27
sg51
I184
sg266
I21
sg117
I9
sg54
I0
sg261
I14
sg262
I4
sg263
I38
sg264
I52
sg265
I71
sg169
I19
sg170
I21
sg259
I18
sg267
I279
sg268
I15
sg274
I12
sg173
I24
sg105
I175
sg65
I0
sg270
I22
sg203
I5
sg118
I4
sg178
I48
sg273
I41
sg294
I14
sg275
I11
sg75
I0
sg276
I25
sg278
I26
sg279
I11
sg280
I22
sg185
I48
sg282
I17
sg188
I131
sg88
I576
sg283
I23
sg284
I20
sg285
I15
sg286
I36
sg287
I24
sg288
I14
sg192
I17
sg289
I14
sg290
I27
sg291
I20
sg97
I1
sg292
I3
sg293
I34
sg295
I11
sg296
I7
sg52
I0
sg297
I16
sg298
I15
sg103
I218
sg269
I12
sg272
I18
sg300
I40
sg301
I15
sg302
I15
sg281
I16
sg209
I48
sg304
I27
sg305
I3
sS'Schenectady'
p309
I9
sg307
I11
ssI1862
(dp310
g225
I64
sg5
I8
sg6
I77
sg227
I18
sg228
I17
sg133
I74
sg229
I13
sg11
I10
sg136
I11
sg236
I12
sg232
I16
sg233
I29
sg212
I20
sg234
I12
sg235
I12
sg21
I839
sg231
I12
sg213
I2
sg24
I173
sg238
I24
sg27
I71
sg239
I5
sg240
I41
sg252
I16
sg242
I34
sg243
I50
sg215
I5
sg244
I14
sg33
I5
sg245
I18
sg246
I13
sg247
I13
sg37
I57
sg248
I16
sg249
I1
sg251
I15
sg116
I0
sg40
I172
sg158
I4
sg241
I20
sg160
I55
sg253
I32
sg42
I7
sg254
I14
sg46
I4
sg255
I25
sg256
I11
sg49
I89
sg214
I6
sg258
I28
sg51
I191
sg266
I22
sg117
I10
sg54
I0
sg261
I15
sg262
I5
sg263
I39
sg264
I54
sg265
I74
sg169
I20
sg170
I24
sg259
I19
sg267
I292
sg268
I16
sg274
I13
sg173
I26
sg105
I190
sg65
I0
sg270
I22
sg203
I5
sg118
I5
sg178
I51
sg273
I42
sg294
I15
sg275
I11
sg75
I0
sg276
I25
sg278
I28
sg279
I12
sg280
I22
sg185
I53
sg282
I17
sg188
I150
sg88
I587
sg283
I24
sg284
I21
sg285
I15
sg286
I36
sg287
I25
sg288
I14
sg192
I18
sg289
I15
sg290
I28
sg291
I21
sg97
I2
sg292
I4
sg293
I39
sg295
I13
sg296
I10
sg52
I0
sg297
I16
sg298
I16
sg103
I224
sg269
I13
sg272
I19
sg300
I41
sg301
I16
sg302
I15
sg281
I16
sg209
I51
sg304
I28
sg305
I4
sg309
I9
sg307
I12
ssI1863
(dp311
g225
I65
sg5
I8
sg6
I80
sg227
I19
sg228
I19
sg133
I83
sg229
I13
sg11
I10
sg136
I12
sg236
I12
sg232
I17
sg233
I29
sg212
I21
sg234
I12
sg235
I13
sg21
I852
sg231
I13
sg213
I2
sg24
I179
sg238
I25
sg27
I76
sg239
I6
sg240
I42
sg252
I17
sg242
I37
sg243
I51
sg215
I5
sg244
I15
sg33
I5
sg245
I18
sg246
I14
sg247
I14
sg37
I61
sg248
I17
sg249
I1
sg251
I16
sg116
I0
sg40
I174
sg158
I4
sg241
I20
sg160
I57
sg253
I34
sg42
I7
sg254
I15
sg46
I5
sg255
I25
sg256
I12
sg49
I93
sg214
I6
sg258
I29
sg51
I198
sg266
I23
sg117
I11
sg54
I0
sg261
I16
sg262
I6
sg263
I40
sg264
I56
sg265
I77
sg169
I21
sg170
I27
sg259
I20
sg267
I305
sg268
I17
sg274
I14
sg173
I28
sg105
I205
sg65
I0
sg270
I22
sg203
I5
sg118
I6
sg178
I54
sg273
I43
sg294
I16
sg275
I11
sg75
I0
sg276
I25
sg278
I30
sg279
I13
sg280
I22
sg185
I58
sg282
I17
sg188
I169
sg88
I598
sg283
I25
sg284
I22
sg285
I15
sg286
I36
sg287
I26
sg288
I14
sg192
I19
sg289
I16
sg290
I29
sg291
I22
sg97
I3
sg292
I5
sg293
I44
sg295
I15
sg296
I13
sg52
I0
sg297
I16
sg298
I17
sg103
I230
sg269
I14
sg272
I20
sg300
I42
sg301
I17
sg302
I15
sg281
I16
sg209
I54
sg304
I29
sg305
I5
sg309
I9
sg307
I13
ssI1864
(dp312
g225
I66
sg5
I8
sg6
I83
sg227
I20
sg228
I21
sg133
I92
sg229
I13
sg11
I10
sg136
I13
sg236
I12
sg232
I18
sg233
I29
sg212
I22
sg234
I12
sg235
I14
sg21
I865
sg231
I14
sg213
I2
sg24
I185
sg238
I26
sg27
I81
sg239
I7
sg240
I43
sg252
I18
sg242
I40
sg243
I52
sg215
I5
sg244
I16
sg33
I5
sg245
I18
sg246
I15
sg247
I15
sg37
I65
sg248
I18
sg249
I1
sg251
I17
sg116
I0
sg40
I176
sg158
I4
sg241
I20
sg160
I59
sg253
I36
sg42
I7
sg254
I16
sg46
I6
sg255
I25
sg256
I13
sg49
I97
sg214
I6
sg258
I30
sg51
I205
sg266
I24
sg117
I12
sg54
I0
sg261
I17
sg262
I7
sg263
I41
sg264
I58
sg265
I80
sg169
I22
sg170
I30
sg259
I21
sg267
I318
sg268
I18
sg274
I15
sg173
I30
sg105
I220
sg65
I0
sg270
I22
sg203
I5
sg118
I7
sg178
I57
sg273
I44
sg294
I17
sg275
I11
sg75
I0
sg276
I25
sg278
I32
sg279
I14
sg280
I22
sg185
I63
sg282
I17
sg188
I188
sg88
I609
sg283
I26
sg284
I23
sg285
I15
sg286
I36
sg287
I27
sg288
I14
sg192
I20
sg289
I17
sg290
I30
sg291
I23
sg97
I4
sg292
I6
sg293
I49
sg295
I17
sg296
I16
sg52
I0
sg297
I16
sg298
I18
sg103
I236
sg269
I15
sg272
I21
sg300
I43
sg301
I18
sg302
I15
sg281
I16
sg209
I57
sg304
I30
sg305
I6
sg309
I9
sg307
I14
ssI1865
(dp313
g225
I67
sg5
I8
sg6
I86
sg227
I21
sg228
I23
sg133
I101
sg229
I13
sg11
I10
sg136
I14
sg236
I12
sg232
I19
sg233
I29
sg212
I23
sg234
I12
sg235
I15
sg21
I878
sg231
I15
sg213
I2
sg24
I191
sg238
I27
sg27
I86
sg239
I8
sg240
I44
sg252
I19
sg242
I43
sg243
I53
sg215
I6
sg244
I17
sg33
I5
sg245
I18
sg246
I16
sg247
I16
sg37
I69
sg248
I19
sg249
I1
sg251
I18
sg116
I0
sg40
I178
sg158
I4
sg241
I20
sg160
I61
sg253
I38
sg42
I7
sg254
I17
sg46
I7
sg255
I25
sg256
I14
sg49
I101
sg214
I6
sg258
I31
sg51
I212
sg266
I25
sg117
I13
sg54
I0
sg261
I18
sg262
I8
sg263
I42
sg264
I60
sg265
I83
sg169
I23
sg170
I33
sg259
I22
sg267
I331
sg268
I19
sg274
I16
sg173
I32
sg105
I235
sg65
I0
sg270
I22
sg203
I5
sg118
I8
sg178
I60
sg273
I45
sg294
I18
sg275
I11
sg75
I0
sg276
I25
sg278
I34
sg279
I15
sg280
I22
sg185
I68
sg282
I17
sg188
I207
sg88
I620
sg283
I27
sg284
I24
sg285
I15
sg286
I36
sg287
I28
sg288
I14
sg192
I21
sg289
I18
sg290
I31
sg291
I24
sg97
I5
sg292
I7
sg293
I54
sg295
I19
sg296
I19
sg52
I0
sg297
I16
sg298
I19
sg103
I242
sg269
I16
sg272
I22
sg300
I44
sg301
I19
sg302
I15
sg281
I16
sg209
I60
sg304
I31
sg305
I7
sg309
I9
sg307
I15
ssI1866
(dp314
g225
I68
sg5
I8
sg6
I89
sg227
I22
sg228
I25
sg133
I110
sg229
I13
sg11
I10
sg136
I15
sg236
I12
sg232
I20
sg233
I29
sg212
I24
sg234
I12
sg235
I16
sg21
I891
sg231
I16
sg213
I2
sg24
I197
sg238
I28
sg27
I91
sg239
I9
sg240
I45
sg252
I20
sg242
I46
sg243
I54
sg215
I6
sg244
I18
sg33
I5
sg245
I18
sg246
I17
sg247
I17
sg37
I73
sg248
I20
sg249
I1
sg251
I19
sg116
I0
sg40
I180
sg158
I4
sg241
I20
sg160
I63
sg253
I40
sg42
I7
sg254
I18
sg46
I8
sg255
I25
sg256
I15
sg49
I105
sg214
I6
sg258
I32
sg51
I219
sg266
I26
sg117
I14
sg54
I0
sg261
I19
sg262
I9
sg263
I43
sg264
I62
sg265
I86
sg169
I24
sg170
I36
sg259
I23
sg267
I344
sg268
I20
sg274
I17
sg173
I34
sg105
I250
sg65
I0
sg270
I22
sg203
I5
sg118
I9
sg178
I63
sg273
I46
sg294
I19
sg275
I11
sg75
I0
sg276
I25
sg278
I36
sg279
I16
sg280
I22
sg185
I73
sg282
I17
sg188
I226
sg88
I631
sg283
I28
sg284
I25
sg285
I15
sg286
I36
sg287
I29
sg288
I14
sg192
I22
sg289
I19
sg290
I32
sg291
I25
sg97
I6
sg292
I8
sg293
I59
sg295
I21
sg296
I22
sg52
I0
sg297
I16
sg298
I20
sg103
I248
sg269
I17
sg272
I23
sg300
I45
sg301
I20
sg302
I15
sg281
I16
sg209
I63
sg304
I32
sg305
I8
sg309
I9
sg307
I16
ssI1867
(dp315
g225
I69
sg5
I8
sg6
I92
sg227
I23
sg228
I27
sg133
I119
sg229
I13
sg11
I10
sg136
I16
sg236
I12
sg232
I21
sg233
I29
sg212
I25
sg234
I12
sg235
I17
sg21
I904
sg231
I17
sg213
I2
sg24
I203
sg238
I29
sg27
I96
sg239
I10
sg240
I46
sg252
I21
sg242
I49
sg243
I55
sg215
I6
sg244
I19
sg33
I5
sg245
I18
sg246
I18
sg247
I18
sg37
I77
sg248
I21
sg249
I1
sg251
I20
sg116
I0
sg40
I182
sg158
I4
sg241
I20
sg160
I65
sg253
I42
sg42
I7
sg254
I19
sg46
I9
sg255
I25
sg256
I16
sg49
I109
sg214
I6
sg258
I33
sg51
I226
sg266
I27
sg117
I15
sg54
I0
sg261
I20
sg262
I10
sg263
I44
sg264
I64
sg265
I89
sg169
I25
sg170
I39
sg259
I24
sg267
I357
sg268
I21
sg274
I18
sg173
I36
sg105
I265
sg65
I0
sg270
I22
sg203
I5
sg118
I10
sg178
I66
sg273
I47
sg294
I20
sg275
I11
sg75
I0
sg276
I25
sg278
I38
sg279
I17
sg280
I22
sg185
I78
sg282
I17
sg188
I245
sg88
I642
sg283
I29
sg284
I26
sg285
I15
sg286
I36
sg287
I30
sg288
I14
sg192
I23
sg289
I20
sg290
I33
sg291
I26
sg97
I7
sg292
I9
sg293
I64
sg295
I23
sg296
I25
sg52
I0
sg297
I16
sg298
I21
sg103
I254
sg269
I18
sg272
I24
sg300
I46
sg301
I21
sg302
I15
sg281
I16
sg209
I66
sg304
I33
sg305
I9
sg309
I9
sg307
I17
ssI1868
(dp316
g225
I70
sg5
I8
sg6
I95
sg227
I24
sg228
I29
sg133
I128
sg229
I13
sg11
I10
sg136
I17
sg236
I12
sg232
I22
sg233
I29
sg212
I26
sg234
I12
sg235
I18
sg21
I917
sg231
I18
sg213
I2
sg24
I209
sg238
I30
sg27
I101
sg239
I11
sg240
I47
sg252
I22
sg242
I52
sg243
I56
sg215
I7
sg244
I20
sg33
I5
sg245
I18
sg246
I19
sg247
I19
sg37
I81
sg248
I22
sg249
I1
sg251
I21
sg116
I0
sg40
I184
sg158
I4
sg241
I20
sg160
I67
sg253
I44
sg42
I7
sg254
I20
sg46
I10
sg255
I25
sg256
I17
sg49
I113
sg214
I6
sg258
I34
sg51
I233
sg266
I28
sg117
I16
sg54
I0
sg261
I21
sg262
I11
sg263
I45
sg264
I66
sg265
I92
sg169
I26
sg170
I42
sg259
I25
sg267
I370
sg268
I22
sg274
I19
sg173
I38
sg105
I280
sg65
I0
sg270
I22
sg203
I5
sg118
I11
sg178
I69
sg273
I48
sg294
I21
sg275
I11
sg75
I0
sg276
I25
sg278
I40
sg279
I18
sg280
I22
sg185
I83
sg282
I17
sg188
I264
sg88
I653
sg283
I30
sg284
I27
sg285
I15
sg286
I36
sg287
I31
sg288
I14
sg192
I24
sg289
I21
sg290
I34
sg291
I27
sg97
I8
sg292
I10
sg293
I69
sg295
I25
sg296
I28
sg52
I0
sg297
I16
sg298
I22
sg103
I260
sg269
I19
sg272
I25
sg300
I47
sg301
I22
sg302
I15
sg281
I16
sg209
I69
sg304
I34
sg305
I10
sg309
I9
sg307
I18
ssI1869
(dp317
g225
I71
sg5
I8
sg6
I98
sg227
I25
sg228
I31
sg133
I137
sg229
I13
sg11
I10
sg136
I18
sg236
I12
sg232
I23
sg233
I29
sg212
I27
sg234
I12
sg235
I19
sg21
I930
sg231
I19
sg213
I2
sg24
I215
sg238
I31
sg27
I106
sg239
I12
sg240
I48
sg252
I23
sg242
I55
sg243
I57
sg215
I7
sg244
I21
sg33
I5
sg245
I18
sg246
I20
sg247
I20
sg37
I85
sg248
I23
sg249
I1
sg251
I22
sg116
I0
sg40
I186
sg158
I4
sg241
I20
sg160
I69
sg253
I46
sg42
I7
sg254
I21
sg46
I11
sg255
I25
sg256
I18
sg49
I117
sg214
I6
sg258
I35
sg51
I240
sg266
I29
sg117
I17
sg54
I0
sg261
I22
sg262
I12
sg263
I46
sg264
I68
sg265
I95
sg169
I27
sg170
I45
sg259
I26
sg267
I383
sg268
I23
sg274
I20
sg173
I40
sg105
I295
sg65
I0
sg270
I22
sg203
I5
sg118
I12
sg178
I72
sg273
I49
sg294
I22
sg275
I11
sg75
I0
sg276
I25
sg278
I42
sg279
I19
sg280
I22
sg185
I88
sg282
I17
sg188
I283
sg88
I664
sg283
I31
sg284
I28
sg285
I15
sg286
I36
sg287
I32
sg288
I14
sg192
I25
sg289
I22
sg290
I35
sg291
I28
sg97
I9
sg292
I11
sg293
I74
sg295
I27
sg296
I31
sg52
I0
sg297
I16
sg298
I23
sg103
I266
sg269
I20
sg272
I26
sg300
I48
sg301
I23
sg302
I15
sg281
I16
sg209
I72
sg304
I35
sg305
I11
sg309
I9
sg307
I19
ssI1870
(dp318
S'Albany'
p319
I69
sg5
I10
sg6
I105
sS'Covington'
p320
I24
sS'Toledo'
p321
I31
sg133
I149
sS'Davenport'
p322
I20
sg11
I10
sS'Fort Wayne'
p323
I17
sg136
I21
sS'Gloucester'
p324
I15
sS'Norfolk'
p325
I19
sS'Scranton'
p326
I35
sg212
I28
sS'Augusta'
p327
I15
sS'Newport'
p328
I15
sg54
I0
sg21
I942
sS'New Albany'
p329
I15
sg213
I2
sg24
I216
sS'Savannah'
p330
I28
sS'Newburgh'
p331
I17
sg239
I13
sS'Troy'
p332
I46
sS'Camden'
p333
I20
sS'Allegheny'
p334
I53
sS'Seattle'
p335
I1
sS'Rochester'
p336
I62
sg27
I109
sg33
I8
sS'Denver'
p337
I5
sS'Burlington'
p338
I14
sS'Petersburg'
p339
I18
sS'Evansville'
p340
I21
sS'St. Joseph'
p341
I19
sS'Elizabeth'
p342
I20
sg37
I86
sS'Peoria'
p343
I22
sg249
I2
sS'Dubuque'
p344
I18
sg39
I3
sS'Williamsport'
p345
I16
sg158
I6
sS'Manchester'
p346
I23
sg160
I69
sS'Syracuse'
p347
I43
sg42
I11
sS'Bridgeport'
p348
I18
sS'Leavenworth'
p349
I17
sg46
I8
sS'Charlescity'
p350
I28
sS'Hoboken'
p351
I20
sg49
I117
sg214
I9
sS'Cambridge'
p352
I39
sS'Cohoes'
p353
I15
sg51
I250
sS'Lawrence'
p354
I28
sS'Terre Haute'
p355
I16
sS'Sacramento'
p356
I16
sS'Erie'
p357
I19
sS'Quincy'
p358
I24
sg262
I8
sS'Richmond'
p359
I51
sS'Providence'
p360
I68
sS'Louisville'
p361
I100
sg40
I191
sg169
I31
sg170
I48
sS'Dayton'
p362
I30
sS'Brooklyn'
p363
I396
sS'Poughkeepsie'
p364
I20
sg173
I40
sg105
I310
sg65
I2
sS'New Bedford'
p365
I21
sg203
I9
sg69
I12
sg178
I79
sS'Charleston'
p366
I48
sg215
I7
sS'New Brunswick'
p367
I15
sg75
I0
sS'Charlestown'
p368
I28
sS'Worcester'
p369
I41
sS'Auburn'
p370
I17
sS'Salem'
p371
I24
sg185
I92
sS'Lancaster'
p372
I20
sg188
I298
sS'Mobile'
p373
I32
sg88
I674
sS'Utica'
p374
I28
sS'Paterson'
p375
I33
sS'Springfield'
p376
I17
sS'Lowell'
p377
I40
sS'Reading'
p378
I33
sS'Norwich'
p379
I16
sg192
I25
sS'Harrisburg'
p380
I23
sS'Grand Rapids'
p381
I16
sS'Hartford'
p382
I37
sS'Jacksonville'
p383
I7
sS'Lynn'
p384
I28
sg97
I6
sg292
I16
sS'Jersey City'
p385
I82
sS'Chelsea'
p386
I18
sS'Wilmington'
p387
I30
sg296
I32
sg52
I3
sS'Bangor'
p388
I18
sS'Wheeling'
p389
I19
sg103
I267
sS'North Providence'
p390
I20
sS'Trenton'
p391
I22
sS'New Haven'
p392
I50
sS'Fall River'
p393
I26
sS'Taunton'
p394
I18
sS'Oswego'
p395
I20
sS'Elmira'
p396
I15
sg209
I71
sS'Portland'
p397
I31
sg305
I11
sg309
I11
sS'St. Paul'
p398
I20
ssI1871
(dp399
g319
I71
sg5
I11
sg6
I108
sg320
I25
sg321
I33
sg133
I157
sg380
I24
sg322
I20
sg11
I11
sg323
I18
sg136
I23
sg325
I19
sg326
I36
sg212
I29
sg327
I16
sg328
I16
sg54
I0
sg21
I968
sg213
I2
sg24
I220
sg330
I28
sg27
I113
sg239
I16
sg332
I47
sg346
I24
sg334
I56
sg335
I1
sg336
I65
sg33
I8
sg337
I8
sg339
I18
sg340
I22
sg341
I20
sg342
I21
sg37
I93
sg343
I23
sg249
I2
sg344
I18
sg116
I3
sg371
I24
sg158
I7
sg333
I22
sg160
I64
sg347
I44
sg42
I11
sg348
I19
sg46
I9
sg351
I21
sg49
I121
sg214
I9
sg352
I40
sg51
I261
sg362
I31
sg355
I17
sg356
I17
sg357
I20
sg358
I24
sg262
I9
sg359
I52
sg360
I72
sg361
I102
sg169
I33
sg170
I51
sg354
I29
sg363
I413
sg364
I20
sg173
I39
sg65
I3
sg365
I22
sg391
I23
sg118
I12
sg178
I83
sg366
I48
sg215
I8
sg75
I0
sg369
I43
sg370
I17
sg40
I194
sg185
I99
sg372
I21
sg188
I319
sg88
I691
sg374
I29
sg375
I35
sg376
I17
sg377
I42
sg378
I34
sg192
I27
sg373
I32
sg381
I18
sg382
I38
sg195
I7
sg384
I29
sg97
I7
sg292
I17
sg385
I86
sg386
I18
sg387
I31
sg296
I34
sg52
I3
sg389
I20
sg103
I274
sg105
I314
sg203
I10
sg392
I51
sg393
I28
sg394
I18
sg395
I20
sg396
I16
sg209
I75
sg397
I31
sg305
I13
sg309
I11
sg398
I22
ssI1872
(dp400
g319
I73
sg5
I12
sg6
I111
sg320
I26
sg321
I35
sg133
I165
sg380
I25
sg322
I20
sg11
I12
sg323
I19
sg136
I25
sg325
I19
sg326
I37
sg212
I30
sg327
I17
sg328
I17
sg54
I0
sg21
I994
sg213
I2
sg24
I224
sg330
I28
sg27
I117
sg239
I19
sg332
I48
sg346
I25
sg334
I59
sg335
I1
sg336
I68
sg33
I8
sg337
I11
sg339
I18
sg340
I23
sg341
I21
sg342
I22
sg37
I100
sg343
I24
sg249
I2
sg344
I18
sg116
I3
sg371
I24
sg158
I8
sg333
I24
sg160
I59
sg347
I45
sg42
I11
sg348
I20
sg46
I10
sg351
I22
sg49
I125
sg214
I9
sg352
I41
sg51
I272
sg362
I32
sg355
I18
sg356
I18
sg357
I21
sg358
I24
sg262
I10
sg359
I53
sg360
I76
sg361
I104
sg169
I35
sg170
I54
sg354
I30
sg363
I430
sg364
I20
sg173
I38
sg65
I4
sg365
I23
sg391
I24
sg118
I12
sg178
I87
sg366
I48
sg215
I8
sg75
I0
sg369
I45
sg370
I17
sg40
I197
sg185
I106
sg372
I22
sg188
I340
sg88
I708
sg374
I30
sg375
I37
sg376
I17
sg377
I44
sg378
I35
sg192
I29
sg373
I32
sg381
I20
sg382
I39
sg195
I7
sg384
I30
sg97
I8
sg292
I18
sg385
I90
sg386
I18
sg387
I32
sg296
I36
sg52
I3
sg389
I21
sg103
I281
sg105
I318
sg203
I11
sg392
I52
sg393
I30
sg394
I18
sg395
I20
sg396
I17
sg209
I79
sg397
I31
sg305
I15
sg309
I11
sg398
I24
ssI1873
(dp401
g319
I75
sg5
I13
sg6
I114
sg320
I27
sg321
I37
sg133
I173
sg380
I26
sg322
I20
sg11
I13
sg323
I20
sg136
I27
sg325
I19
sg326
I38
sg212
I31
sg327
I18
sg328
I18
sg54
I0
sg21
I1020
sg213
I2
sg24
I228
sg330
I28
sg27
I121
sg239
I22
sg332
I49
sg346
I26
sg334
I62
sg335
I1
sg336
I71
sg33
I8
sg337
I14
sg339
I18
sg340
I24
sg341
I22
sg342
I23
sg37
I107
sg343
I25
sg249
I2
sg344
I18
sg116
I3
sg371
I24
sg158
I9
sg333
I26
sg160
I54
sg347
I46
sg42
I11
sg348
I21
sg46
I11
sg351
I23
sg49
I129
sg214
I9
sg352
I42
sg51
I283
sg362
I33
sg355
I19
sg356
I19
sg357
I22
sg358
I24
sg262
I11
sg359
I54
sg360
I80
sg361
I106
sg169
I37
sg170
I57
sg354
I31
sg363
I447
sg364
I20
sg173
I37
sg65
I5
sg365
I24
sg391
I25
sg118
I12
sg178
I91
sg366
I48
sg215
I8
sg75
I0
sg369
I47
sg370
I17
sg40
I200
sg185
I113
sg372
I23
sg188
I361
sg88
I725
sg374
I31
sg375
I39
sg376
I17
sg377
I46
sg378
I36
sg192
I31
sg373
I32
sg381
I22
sg382
I40
sg195
I7
sg384
I31
sg97
I9
sg292
I19
sg385
I94
sg386
I18
sg387
I33
sg296
I38
sg52
I3
sg389
I22
sg103
I288
sg105
I322
sg203
I12
sg392
I53
sg393
I32
sg394
I18
sg395
I20
sg396
I18
sg209
I83
sg397
I31
sg305
I17
sg309
I11
sg398
I26
ssI1874
(dp402
g319
I77
sg5
I14
sg6
I117
sg320
I28
sg321
I39
sg133
I181
sg380
I27
sg322
I20
sg11
I14
sg323
I21
sg136
I29
sg325
I19
sg326
I39
sg212
I32
sg327
I19
sg328
I19
sg54
I0
sg21
I1046
sg213
I2
sg24
I232
sg330
I28
sg27
I125
sg239
I25
sg332
I50
sg346
I27
sg334
I65
sg335
I1
sg336
I74
sg33
I8
sg337
I17
sg339
I18
sg340
I25
sg341
I23
sg342
I24
sg37
I114
sg343
I26
sg249
I2
sg344
I18
sg116
I3
sg371
I24
sg158
I10
sg333
I28
sg160
I49
sg347
I47
sg42
I11
sg348
I22
sg46
I12
sg351
I24
sg49
I133
sg214
I9
sg352
I43
sg51
I294
sg362
I34
sg355
I20
sg356
I20
sg357
I23
sg358
I24
sg262
I12
sg359
I55
sg360
I84
sg361
I108
sg169
I39
sg170
I60
sg354
I32
sg363
I464
sg364
I20
sg173
I36
sg65
I6
sg365
I25
sg391
I26
sg118
I12
sg178
I95
sg366
I48
sg215
I9
sg75
I0
sg369
I49
sg370
I17
sg40
I203
sg185
I120
sg372
I24
sg188
I382
sg88
I742
sg374
I32
sg375
I41
sg376
I17
sg377
I48
sg378
I37
sg192
I33
sg373
I32
sg381
I24
sg382
I41
sg195
I7
sg384
I32
sg97
I10
sg292
I20
sg385
I98
sg386
I18
sg387
I34
sg296
I40
sg52
I3
sg389
I23
sg103
I295
sg105
I326
sg203
I13
sg392
I54
sg393
I34
sg394
I18
sg395
I20
sg396
I19
sg209
I87
sg397
I31
sg305
I19
sg309
I11
sg398
I28
ssI1875
(dp403
g319
I79
sg5
I15
sg6
I120
sg320
I29
sg321
I41
sg133
I189
sg380
I28
sg322
I20
sg11
I15
sg323
I22
sg136
I31
sg325
I19
sg326
I40
sg212
I33
sg327
I20
sg328
I20
sg54
I0
sg21
I1072
sg213
I2
sg24
I236
sg330
I28
sg27
I129
sg239
I28
sg332
I51
sg346
I28
sg334
I68
sg335
I1
sg336
I77
sg33
I8
sg337
I20
sg339
I18
sg340
I26
sg341
I24
sg342
I25
sg37
I121
sg343
I27
sg249
I2
sg344
I18
sg116
I3
sg371
I24
sg158
I11
sg333
I30
sg160
I44
sg347
I48
sg42
I11
sg348
I23
sg46
I13
sg351
I25
sg49
I137
sg214
I9
sg352
I44
sg51
I305
sg362
I35
sg355
I21
sg356
I21
sg357
I24
sg358
I24
sg262
I13
sg359
I56
sg360
I88
sg361
I110
sg169
I41
sg170
I63
sg354
I33
sg363
I481
sg364
I20
sg173
I35
sg65
I7
sg365
I26
sg391
I27
sg118
I12
sg178
I99
sg366
I48
sg215
I9
sg75
I0
sg369
I51
sg370
I17
sg40
I206
sg185
I127
sg372
I25
sg188
I403
sg88
I759
sg374
I33
sg375
I43
sg376
I17
sg377
I50
sg378
I38
sg192
I35
sg373
I32
sg381
I26
sg382
I42
sg195
I7
sg384
I33
sg97
I11
sg292
I21
sg385
I102
sg386
I18
sg387
I35
sg296
I42
sg52
I3
sg389
I24
sg103
I302
sg105
I330
sg203
I14
sg392
I55
sg393
I36
sg394
I18
sg395
I20
sg396
I20
sg209
I91
sg397
I31
sg305
I21
sg309
I11
sg398
I30
ssI1876
(dp404
g319
I81
sg5
I16
sg6
I123
sg320
I30
sg321
I43
sg133
I197
sg380
I29
sg322
I20
sg11
I16
sg323
I23
sg136
I33
sg325
I19
sg326
I41
sg212
I34
sg327
I21
sg328
I21
sg54
I0
sg21
I1098
sg213
I2
sg24
I240
sg330
I28
sg27
I133
sg239
I31
sg332
I52
sg346
I29
sg334
I71
sg335
I1
sg336
I80
sg33
I8
sg337
I23
sg339
I18
sg340
I27
sg341
I25
sg342
I26
sg37
I128
sg343
I28
sg249
I2
sg344
I18
sg116
I3
sg371
I24
sg158
I12
sg333
I32
sg160
I39
sg347
I49
sg42
I11
sg348
I24
sg46
I14
sg351
I26
sg49
I141
sg214
I9
sg352
I45
sg51
I316
sg362
I36
sg355
I22
sg356
I22
sg357
I25
sg358
I24
sg262
I14
sg359
I57
sg360
I92
sg361
I112
sg169
I43
sg170
I66
sg354
I34
sg363
I498
sg364
I20
sg173
I34
sg65
I8
sg365
I27
sg391
I28
sg118
I12
sg178
I103
sg366
I48
sg215
I9
sg75
I0
sg369
I53
sg370
I17
sg40
I209
sg185
I134
sg372
I26
sg188
I424
sg88
I776
sg374
I34
sg375
I45
sg376
I17
sg377
I52
sg378
I39
sg192
I37
sg373
I32
sg381
I28
sg382
I43
sg195
I7
sg384
I34
sg97
I12
sg292
I22
sg385
I106
sg386
I18
sg387
I36
sg296
I44
sg52
I3
sg389
I25
sg103
I309
sg105
I334
sg203
I15
sg392
I56
sg393
I38
sg394
I18
sg395
I20
sg396
I21
sg209
I95
sg397
I31
sg305
I23
sg309
I11
sg398
I32
ssI1877
(dp405
g319
I83
sg5
I17
sg6
I126
sg320
I31
sg321
I45
sg133
I205
sg380
I30
sg322
I20
sg11
I17
sg323
I24
sg136
I35
sg325
I19
sg326
I42
sg212
I35
sg327
I22
sg328
I22
sg54
I0
sg21
I1124
sg213
I2
sg24
I244
sg330
I28
sg27
I137
sg239
I34
sg332
I53
sg346
I30
sg334
I74
sg335
I1
sg336
I83
sg33
I8
sg337
I26
sg339
I18
sg340
I28
sg341
I26
sg342
I27
sg37
I135
sg343
I29
sg249
I2
sg344
I18
sg116
I3
sg371
I24
sg158
I13
sg333
I34
sg160
I34
sg347
I50
sg42
I11
sg348
I25
sg46
I15
sg351
I27
sg49
I145
sg214
I9
sg352
I46
sg51
I327
sg362
I37
sg355
I23
sg356
I23
sg357
I26
sg358
I24
sg262
I15
sg359
I58
sg360
I96
sg361
I114
sg169
I45
sg170
I69
sg354
I35
sg363
I515
sg364
I20
sg173
I33
sg65
I9
sg365
I28
sg391
I29
sg118
I12
sg178
I107
sg366
I48
sg215
I10
sg75
I0
sg369
I55
sg370
I17
sg40
I212
sg185
I141
sg372
I27
sg188
I445
sg88
I793
sg374
I35
sg375
I47
sg376
I17
sg377
I54
sg378
I40
sg192
I39
sg373
I32
sg381
I30
sg382
I44
sg195
I7
sg384
I35
sg97
I13
sg292
I23
sg385
I110
sg386
I18
sg387
I37
sg296
I46
sg52
I3
sg389
I26
sg103
I316
sg105
I338
sg203
I16
sg392
I57
sg393
I40
sg394
I18
sg395
I20
sg396
I22
sg209
I99
sg397
I31
sg305
I25
sg309
I11
sg398
I34
ssI1878
(dp406
g319
I85
sg5
I18
sg6
I129
sg320
I32
sg321
I47
sg133
I213
sg380
I31
sg322
I20
sg11
I18
sg323
I25
sg136
I37
sg325
I19
sg326
I43
sg212
I36
sg327
I23
sg328
I23
sg54
I0
sg21
I1150
sg213
I2
sg24
I248
sg330
I28
sg27
I141
sg239
I37
sg332
I54
sg346
I31
sg334
I77
sg335
I1
sg336
I86
sg33
I8
sg337
I29
sg339
I18
sg340
I29
sg341
I27
sg342
I28
sg37
I142
sg343
I30
sg249
I2
sg344
I18
sg116
I3
sg371
I24
sg158
I14
sg333
I36
sg160
I29
sg347
I51
sg42
I11
sg348
I26
sg46
I16
sg351
I28
sg49
I149
sg214
I9
sg352
I47
sg51
I338
sg362
I38
sg355
I24
sg356
I24
sg357
I27
sg358
I24
sg262
I16
sg359
I59
sg360
I100
sg361
I116
sg169
I47
sg170
I72
sg354
I36
sg363
I532
sg364
I20
sg173
I32
sg65
I10
sg365
I29
sg391
I30
sg118
I12
sg178
I111
sg366
I48
sg215
I10
sg75
I0
sg369
I57
sg370
I17
sg40
I215
sg185
I148
sg372
I28
sg188
I466
sg88
I810
sg374
I36
sg375
I49
sg376
I17
sg377
I56
sg378
I41
sg192
I41
sg373
I32
sg381
I32
sg382
I45
sg195
I7
sg384
I36
sg97
I14
sg292
I24
sg385
I114
sg386
I18
sg387
I38
sg296
I48
sg52
I3
sg389
I27
sg103
I323
sg105
I342
sg203
I17
sg392
I58
sg393
I42
sg394
I18
sg395
I20
sg396
I23
sg209
I103
sg397
I31
sg305
I27
sg309
I11
sg398
I36
ssI1879
(dp407
g319
I87
sg5
I19
sg6
I132
sg320
I33
sg321
I49
sg133
I221
sg380
I32
sg322
I20
sg11
I19
sg323
I26
sg136
I39
sg325
I19
sg326
I44
sg212
I37
sg327
I24
sg328
I24
sg54
I0
sg21
I1176
sg213
I2
sg24
I252
sg330
I28
sg27
I145
sg239
I40
sg332
I55
sg346
I32
sg334
I80
sg335
I1
sg336
I89
sg33
I8
sg337
I32
sg339
I18
sg340
I30
sg341
I28
sg342
I29
sg37
I149
sg343
I31
sg249
I2
sg344
I18
sg116
I3
sg371
I24
sg158
I15
sg333
I38
sg160
I24
sg347
I52
sg42
I11
sg348
I27
sg46
I17
sg351
I29
sg49
I153
sg214
I9
sg352
I48
sg51
I349
sg362
I39
sg355
I25
sg356
I25
sg357
I28
sg358
I24
sg262
I17
sg359
I60
sg360
I104
sg361
I118
sg169
I49
sg170
I75
sg354
I37
sg363
I549
sg364
I20
sg173
I31
sg65
I11
sg365
I30
sg391
I31
sg118
I12
sg178
I115
sg366
I48
sg215
I10
sg75
I0
sg369
I59
sg370
I17
sg40
I218
sg185
I155
sg372
I29
sg188
I487
sg88
I827
sg374
I37
sg375
I51
sg376
I17
sg377
I58
sg378
I42
sg192
I43
sg373
I32
sg381
I34
sg382
I46
sg195
I7
sg384
I37
sg97
I15
sg292
I25
sg385
I118
sg386
I18
sg387
I39
sg296
I50
sg52
I3
sg389
I28
sg103
I330
sg105
I346
sg203
I18
sg392
I59
sg393
I44
sg394
I18
sg395
I20
sg396
I24
sg209
I107
sg397
I31
sg305
I29
sg309
I11
sg398
I38
ssI1880
(dp408
S'Albany'
p409
I90
sg5
I16
sg6
I136
sS'Covington'
p410
I29
sS'Toledo'
p411
I50
sg133
I233
sS'Harrisburg'
p412
I30
sS'Sacramento'
p413
I21
sg262
I18
sg11
I17
sS'Fort Wayne'
p414
I26
sg136
I37
sS'Norfolk'
p415
I21
sS'Mobile'
p416
I29
sg212
I38
sS'Augusta'
p417
I21
sS'Newport'
p418
I20
sg54
I1
sg213
I2
sg24
I255
sS'Savannah'
p419
I30
sS'Manchester'
p420
I32
sg27
I147
sS'Fort Worth'
p421
I7
sg239
I46
sS'Troy'
p422
I56
sS'Camden'
p423
I41
sS'Allegheny'
p424
I78
sg335
I4
sS'Rochester'
p425
I89
sg215
I11
sg33
I9
sg337
I35
sS'Petersburg'
p426
I21
sS'Evansville'
p427
I29
sS'St. Joseph'
p428
I32
sS'Elizabeth'
p429
I28
sg37
I156
sS'Peoria'
p430
I29
sg249
I3
sS'Dubuque'
p431
I22
sg39
I7
sg21
I1206
sg158
I11
sS'Salt Lake City'
p432
I20
sg160
I20
sS'Syracuse'
p433
I51
sg42
I13
sS'Bridgeport'
p434
I27
sg46
I15
sS'Hoboken'
p435
I30
sg49
I155
sg214
I10
sS'Cambridge'
p436
I52
sg51
I362
sS'Lawrence'
p437
I39
sS'Terre Haute'
p438
I26
sS'Holyoke'
p439
I21
sS'Erie'
p440
I27
sS'Quincy'
p441
I27
sS'Dallas'
p442
I10
sS'Richmond'
p443
I63
sS'Providence'
p444
I104
sS'Louisville'
p445
I123
sg40
I216
sg169
I51
sg170
I75
sS'Dayton'
p446
I38
sS'Brooklyn'
p447
I566
sS'Poughkeepsie'
p448
I20
sg173
I33
sS'Galveston'
p449
I22
sg65
I13
sS'New Bedford'
p450
I26
sS'Trenton'
p451
I29
sg69
I13
sg178
I116
sS'Charleston'
p452
I49
sS'Davenport'
p453
I21
sg75
I2
sS'Worcester'
p454
I58
sS'Auburn'
p455
I21
sS'Salem'
p456
I27
sg185
I160
sS'Somerville'
p457
I24
sS'Lancaster'
p458
I25
sg188
I503
sg88
I847
sS'Wilkes-Barre'
p459
I23
sS'Utica'
p460
I33
sS'Paterson'
p461
I51
sS'Bay City'
p462
I20
sS'Springfield'
p463
I19
sS'Lowell'
p464
I59
sS'Reading'
p465
I43
sg192
I43
sS'Scranton'
p466
I45
sS'Grand Rapids'
p467
I32
sS'Hartford'
p468
I42
sg195
I7
sS'Lynn'
p469
I38
sg97
I12
sg292
I30
sS'Jersey City'
p470
I120
sS'Chelsea'
p471
I21
sS'Wilmington'
p472
I42
sg296
I55
sg52
I3
sS'Wheeling'
p473
I30
sg103
I332
sg105
I350
sg203
I17
sS'New Haven'
p474
I62
sS'Fall River'
p475
I48
sS'Taunton'
p476
I21
sS'Oswego'
p477
I21
sS'Elmira'
p478
I20
sS'Des Moines'
p479
I22
sg209
I115
sS'Portland'
p480
I33
sg305
I34
sg309
I13
sS'St. Paul'
p481
I41
ssI1881
(dp482
g409
I90
sg5
I17
sg6
I141
sg410
I30
sg411
I53
sg133
I240
sg413
I22
sg442
I13
sg11
I18
sg414
I27
sg136
I40
sg415
I22
sg466
I48
sg212
I39
sg417
I22
sg54
I5
sg213
I2
sg24
I259
sg419
I31
sg420
I33
sg27
I155
sg421
I9
sg239
I58
sg422
I56
sg423
I43
sg424
I81
sg335
I8
sg425
I93
sg33
I10
sg337
I42
sg427
I31
sg428
I34
sg429
I29
sg37
I164
sg430
I30
sg249
I4
sg116
I10
sg21
I1237
sg158
I15
sg432
I22
sg160
I22
sg433
I55
sg42
I14
sg434
I29
sg46
I17
sg435
I31
sg49
I165
sg214
I10
sg436
I54
sg51
I371
sg446
I40
sg117
I26
sg439
I22
sg440
I28
sg441
I27
sg262
I21
sg443
I65
sg444
I107
sg445
I127
sg40
I219
sg169
I55
sg170
I78
sg437
I40
sg447
I590
sg173
I36
sg65
I17
sg450
I27
sg203
I18
sg118
I14
sg178
I125
sg452
I50
sg215
I11
sg75
I2
sg454
I61
sg456
I27
sg185
I170
sg457
I26
sg458
I26
sg188
I563
sg416
I29
sg88
I867
sg459
I24
sg460
I34
sg461
I54
sg463
I20
sg464
I61
sg465
I45
sg192
I46
sg412
I31
sg467
I35
sg468
I43
sg195
I8
sg469
I40
sg97
I14
sg292
I41
sg470
I124
sg472
I44
sg296
I53
sg52
I6
sg473
I30
sg103
I342
sg105
I360
sg451
I32
sg474
I64
sg475
I51
sg478
I21
sg479
I25
sg209
I124
sg480
I33
sg305
I35
sg309
I14
sg481
I50
ssI1882
(dp483
g409
I90
sg5
I18
sg6
I146
sg410
I31
sg411
I56
sg133
I247
sg413
I23
sg442
I16
sg11
I19
sg414
I28
sg136
I43
sg415
I23
sg466
I51
sg212
I40
sg417
I23
sg54
I9
sg213
I2
sg24
I263
sg419
I32
sg420
I34
sg27
I163
sg421
I11
sg239
I70
sg422
I56
sg423
I45
sg424
I84
sg335
I12
sg425
I97
sg33
I11
sg337
I49
sg427
I33
sg428
I36
sg429
I30
sg37
I172
sg430
I31
sg249
I5
sg116
I13
sg21
I1268
sg158
I19
sg432
I24
sg160
I24
sg433
I59
sg42
I15
sg434
I31
sg46
I19
sg435
I32
sg49
I175
sg214
I10
sg436
I56
sg51
I380
sg446
I42
sg117
I26
sg439
I23
sg440
I29
sg441
I27
sg262
I24
sg443
I67
sg444
I110
sg445
I131
sg40
I222
sg169
I59
sg170
I81
sg437
I41
sg447
I614
sg173
I39
sg65
I21
sg450
I28
sg203
I19
sg118
I15
sg178
I134
sg452
I51
sg215
I11
sg75
I2
sg454
I64
sg456
I27
sg185
I180
sg457
I28
sg458
I27
sg188
I623
sg416
I29
sg88
I887
sg459
I25
sg460
I35
sg461
I57
sg463
I21
sg464
I63
sg465
I47
sg192
I49
sg412
I32
sg467
I38
sg468
I44
sg195
I9
sg469
I42
sg97
I16
sg292
I52
sg470
I128
sg472
I46
sg296
I51
sg52
I9
sg473
I30
sg103
I352
sg105
I370
sg451
I35
sg474
I66
sg475
I54
sg478
I22
sg479
I28
sg209
I133
sg480
I33
sg305
I36
sg309
I15
sg481
I59
ssI1883
(dp484
g409
I90
sg5
I19
sg6
I151
sg410
I32
sg411
I59
sg133
I254
sg413
I24
sg442
I19
sg11
I20
sg414
I29
sg136
I46
sg415
I24
sg466
I54
sg212
I41
sg417
I24
sg54
I13
sg213
I2
sg24
I267
sg419
I33
sg420
I35
sg27
I171
sg421
I13
sg239
I82
sg422
I56
sg423
I47
sg424
I87
sg335
I16
sg425
I101
sg33
I12
sg337
I56
sg427
I35
sg428
I38
sg429
I31
sg37
I180
sg430
I32
sg249
I6
sg116
I16
sg21
I1299
sg158
I23
sg432
I26
sg160
I26
sg433
I63
sg42
I16
sg434
I33
sg46
I21
sg435
I33
sg49
I185
sg214
I10
sg436
I58
sg51
I389
sg446
I44
sg117
I26
sg439
I24
sg440
I30
sg441
I27
sg262
I27
sg443
I69
sg444
I113
sg445
I135
sg40
I225
sg169
I63
sg170
I84
sg437
I42
sg447
I638
sg173
I42
sg65
I25
sg450
I29
sg203
I20
sg118
I16
sg178
I143
sg452
I52
sg215
I12
sg75
I2
sg454
I67
sg456
I27
sg185
I190
sg457
I30
sg458
I28
sg188
I683
sg416
I29
sg88
I907
sg459
I26
sg460
I36
sg461
I60
sg463
I22
sg464
I65
sg465
I49
sg192
I52
sg412
I33
sg467
I41
sg468
I45
sg195
I10
sg469
I44
sg97
I18
sg292
I63
sg470
I132
sg472
I48
sg296
I49
sg52
I12
sg473
I30
sg103
I362
sg105
I380
sg451
I38
sg474
I68
sg475
I57
sg478
I23
sg479
I31
sg209
I142
sg480
I33
sg305
I37
sg309
I16
sg481
I68
ssI1884
(dp485
g409
I90
sg5
I20
sg6
I156
sg410
I33
sg411
I62
sg133
I261
sg413
I25
sg442
I22
sg11
I21
sg414
I30
sg136
I49
sg415
I25
sg466
I57
sg212
I42
sg417
I25
sg54
I17
sg213
I2
sg24
I271
sg419
I34
sg420
I36
sg27
I179
sg421
I15
sg239
I94
sg422
I56
sg423
I49
sg424
I90
sg335
I20
sg425
I105
sg33
I13
sg337
I63
sg427
I37
sg428
I40
sg429
I32
sg37
I188
sg430
I33
sg249
I7
sg116
I19
sg21
I1330
sg158
I27
sg432
I28
sg160
I28
sg433
I67
sg42
I17
sg434
I35
sg46
I23
sg435
I34
sg49
I195
sg214
I10
sg436
I60
sg51
I398
sg446
I46
sg117
I26
sg439
I25
sg440
I31
sg441
I27
sg262
I30
sg443
I71
sg444
I116
sg445
I139
sg40
I228
sg169
I67
sg170
I87
sg437
I43
sg447
I662
sg173
I45
sg65
I29
sg450
I30
sg203
I21
sg118
I17
sg178
I152
sg452
I53
sg215
I12
sg75
I2
sg454
I70
sg456
I27
sg185
I200
sg457
I32
sg458
I29
sg188
I743
sg416
I29
sg88
I927
sg459
I27
sg460
I37
sg461
I63
sg463
I23
sg464
I67
sg465
I51
sg192
I55
sg412
I34
sg467
I44
sg468
I46
sg195
I11
sg469
I46
sg97
I20
sg292
I74
sg470
I136
sg472
I50
sg296
I47
sg52
I15
sg473
I30
sg103
I372
sg105
I390
sg451
I41
sg474
I70
sg475
I60
sg478
I24
sg479
I34
sg209
I151
sg480
I33
sg305
I38
sg309
I17
sg481
I77
ssI1885
(dp486
g409
I90
sg5
I21
sg6
I161
sg410
I34
sg411
I65
sg133
I268
sg413
I26
sg442
I25
sg11
I22
sg414
I31
sg136
I52
sg415
I26
sg466
I60
sg212
I43
sg417
I26
sg54
I21
sg213
I2
sg24
I275
sg419
I35
sg420
I37
sg27
I187
sg421
I17
sg239
I106
sg422
I56
sg423
I51
sg424
I93
sg335
I24
sg425
I109
sg33
I14
sg337
I70
sg427
I39
sg428
I42
sg429
I33
sg37
I196
sg430
I34
sg249
I8
sg116
I22
sg21
I1361
sg158
I31
sg432
I30
sg160
I30
sg433
I71
sg42
I18
sg434
I37
sg46
I25
sg435
I35
sg49
I205
sg214
I10
sg436
I62
sg51
I407
sg446
I48
sg117
I26
sg439
I26
sg440
I32
sg441
I27
sg262
I33
sg443
I73
sg444
I119
sg445
I143
sg40
I231
sg169
I71
sg170
I90
sg437
I44
sg447
I686
sg173
I48
sg65
I33
sg450
I31
sg203
I22
sg118
I18
sg178
I161
sg452
I54
sg215
I12
sg75
I2
sg454
I73
sg456
I27
sg185
I210
sg457
I34
sg458
I30
sg188
I803
sg416
I29
sg88
I947
sg459
I28
sg460
I38
sg461
I66
sg463
I24
sg464
I69
sg465
I53
sg192
I58
sg412
I35
sg467
I47
sg468
I47
sg195
I12
sg469
I48
sg97
I22
sg292
I85
sg470
I140
sg472
I52
sg296
I45
sg52
I18
sg473
I30
sg103
I382
sg105
I400
sg451
I44
sg474
I72
sg475
I63
sg478
I25
sg479
I37
sg209
I160
sg480
I33
sg305
I39
sg309
I18
sg481
I86
ssI1886
(dp487
g409
I90
sg5
I22
sg6
I166
sg410
I35
sg411
I68
sg133
I275
sg413
I27
sg442
I28
sg11
I23
sg414
I32
sg136
I55
sg415
I27
sg466
I63
sg212
I44
sg417
I27
sg54
I25
sg213
I2
sg24
I279
sg419
I36
sg420
I38
sg27
I195
sg421
I19
sg239
I118
sg422
I56
sg423
I53
sg424
I96
sg335
I28
sg425
I113
sg33
I15
sg337
I77
sg427
I41
sg428
I44
sg429
I34
sg37
I204
sg430
I35
sg249
I9
sg116
I25
sg21
I1392
sg158
I35
sg432
I32
sg160
I32
sg433
I75
sg42
I19
sg434
I39
sg46
I27
sg435
I36
sg49
I215
sg214
I10
sg436
I64
sg51
I416
sg446
I50
sg117
I26
sg439
I27
sg440
I33
sg441
I27
sg262
I36
sg443
I75
sg444
I122
sg445
I147
sg40
I234
sg169
I75
sg170
I93
sg437
I45
sg447
I710
sg173
I51
sg65
I37
sg450
I32
sg203
I23
sg118
I19
sg178
I170
sg452
I55
sg215
I13
sg75
I2
sg454
I76
sg456
I27
sg185
I220
sg457
I36
sg458
I31
sg188
I863
sg416
I29
sg88
I967
sg459
I29
sg460
I39
sg461
I69
sg463
I25
sg464
I71
sg465
I55
sg192
I61
sg412
I36
sg467
I50
sg468
I48
sg195
I13
sg469
I50
sg97
I24
sg292
I96
sg470
I144
sg472
I54
sg296
I43
sg52
I21
sg473
I30
sg103
I392
sg105
I410
sg451
I47
sg474
I74
sg475
I66
sg478
I26
sg479
I40
sg209
I169
sg480
I33
sg305
I40
sg309
I19
sg481
I95
ssI1887
(dp488
g409
I90
sg5
I23
sg6
I171
sg410
I36
sg411
I71
sg133
I282
sg413
I28
sg442
I31
sg11
I24
sg414
I33
sg136
I58
sg415
I28
sg466
I66
sg212
I45
sg417
I28
sg54
I29
sg213
I2
sg24
I283
sg419
I37
sg420
I39
sg27
I203
sg421
I21
sg239
I130
sg422
I56
sg423
I55
sg424
I99
sg335
I32
sg425
I117
sg33
I16
sg337
I84
sg427
I43
sg428
I46
sg429
I35
sg37
I212
sg430
I36
sg249
I10
sg116
I28
sg21
I1423
sg158
I39
sg432
I34
sg160
I34
sg433
I79
sg42
I20
sg434
I41
sg46
I29
sg435
I37
sg49
I225
sg214
I10
sg436
I66
sg51
I425
sg446
I52
sg117
I26
sg439
I28
sg440
I34
sg441
I27
sg262
I39
sg443
I77
sg444
I125
sg445
I151
sg40
I237
sg169
I79
sg170
I96
sg437
I46
sg447
I734
sg173
I54
sg65
I41
sg450
I33
sg203
I24
sg118
I20
sg178
I179
sg452
I56
sg215
I13
sg75
I2
sg454
I79
sg456
I27
sg185
I230
sg457
I38
sg458
I32
sg188
I923
sg416
I29
sg88
I987
sg459
I30
sg460
I40
sg461
I72
sg463
I26
sg464
I73
sg465
I57
sg192
I64
sg412
I37
sg467
I53
sg468
I49
sg195
I14
sg469
I52
sg97
I26
sg292
I107
sg470
I148
sg472
I56
sg296
I41
sg52
I24
sg473
I30
sg103
I402
sg105
I420
sg451
I50
sg474
I76
sg475
I69
sg478
I27
sg479
I43
sg209
I178
sg480
I33
sg305
I41
sg309
I20
sg481
I104
ssI1888
(dp489
g409
I90
sg5
I24
sg6
I176
sg410
I37
sg411
I74
sg133
I289
sg413
I29
sg442
I34
sg11
I25
sg414
I34
sg136
I61
sg415
I29
sg466
I69
sg212
I46
sg417
I29
sg54
I33
sg213
I2
sg24
I287
sg419
I38
sg420
I40
sg27
I211
sg421
I23
sg239
I142
sg422
I56
sg423
I57
sg424
I102
sg335
I36
sg425
I121
sg33
I17
sg337
I91
sg427
I45
sg428
I48
sg429
I36
sg37
I220
sg430
I37
sg249
I11
sg116
I31
sg21
I1454
sg158
I43
sg432
I36
sg160
I36
sg433
I83
sg42
I21
sg434
I43
sg46
I31
sg435
I38
sg49
I235
sg214
I10
sg436
I68
sg51
I434
sg446
I54
sg117
I26
sg439
I29
sg440
I35
sg441
I27
sg262
I42
sg443
I79
sg444
I128
sg445
I155
sg40
I240
sg169
I83
sg170
I99
sg437
I47
sg447
I758
sg173
I57
sg65
I45
sg450
I34
sg203
I25
sg118
I21
sg178
I188
sg452
I57
sg215
I13
sg75
I2
sg454
I82
sg456
I27
sg185
I240
sg457
I40
sg458
I33
sg188
I983
sg416
I29
sg88
I1007
sg459
I31
sg460
I41
sg461
I75
sg463
I27
sg464
I75
sg465
I59
sg192
I67
sg412
I38
sg467
I56
sg468
I50
sg195
I15
sg469
I54
sg97
I28
sg292
I118
sg470
I152
sg472
I58
sg296
I39
sg52
I27
sg473
I30
sg103
I412
sg105
I430
sg451
I53
sg474
I78
sg475
I72
sg478
I28
sg479
I46
sg209
I187
sg480
I33
sg305
I42
sg309
I21
sg481
I113
ssI1889
(dp490
g409
I90
sg5
I25
sg6
I181
sg410
I38
sg411
I77
sg133
I296
sg413
I30
sg442
I37
sg11
I26
sg414
I35
sg136
I64
sg415
I30
sg466
I72
sg212
I47
sg417
I30
sg54
I37
sg213
I2
sg24
I291
sg419
I39
sg420
I41
sg27
I219
sg421
I25
sg239
I154
sg422
I56
sg423
I59
sg424
I105
sg335
I40
sg425
I125
sg33
I18
sg337
I98
sg427
I47
sg428
I50
sg429
I37
sg37
I228
sg430
I38
sg249
I12
sg116
I34
sg21
I1485
sg158
I47
sg432
I38
sg160
I38
sg433
I87
sg42
I22
sg434
I45
sg46
I33
sg435
I39
sg49
I245
sg214
I10
sg436
I70
sg51
I443
sg446
I56
sg117
I26
sg439
I30
sg440
I36
sg441
I27
sg262
I45
sg443
I81
sg444
I131
sg445
I159
sg40
I243
sg169
I87
sg170
I102
sg437
I48
sg447
I782
sg173
I60
sg65
I49
sg450
I35
sg203
I26
sg118
I22
sg178
I197
sg452
I58
sg215
I14
sg75
I2
sg454
I85
sg456
I27
sg185
I250
sg457
I42
sg458
I34
sg188
I1043
sg416
I29
sg88
I1027
sg459
I32
sg460
I42
sg461
I78
sg463
I28
sg464
I77
sg465
I61
sg192
I70
sg412
I39
sg467
I59
sg468
I51
sg195
I16
sg469
I56
sg97
I30
sg292
I129
sg470
I156
sg472
I60
sg296
I37
sg52
I30
sg473
I30
sg103
I422
sg105
I440
sg451
I56
sg474
I80
sg475
I75
sg478
I29
sg479
I49
sg209
I196
sg480
I33
sg305
I43
sg309
I22
sg481
I122
ssI1890
(dp491
S'Albany'
p492
I94
sg5
I21
sg6
I181
sS'Covington'
p493
I37
sS'Toledo'
p494
I81
sg133
I298
sS'Harrisburg'
p495
I39
sg135
I26
sg262
I46
sg11
I28
sS'El Paso'
p496
I10
sS'Fort Wayne'
p497
I35
sg136
I65
sS'Norfolk'
p498
I34
sS'Honolulu'
p499
I21
sS'Scranton'
p500
I75
sg212
I48
sS'Augusta'
p501
I33
sS'Topeka'
p502
I31
sS'Tacoma'
p503
I36
sg146
I12
sg24
I296
sS'Fresno'
p504
I11
sS'Savannah'
p505
I43
sS'Manchester'
p506
I44
sg27
I230
sg421
I23
sg239
I164
sS'Troy'
p507
I60
sS'Camden'
p508
I58
sS'Allegheny'
p509
I105
sg335
I42
sS'Rochester'
p510
I133
sg33
I22
sg337
I106
sS'Evansville'
p511
I50
sS'St. Joseph'
p512
I52
sS'Elizabeth'
p513
I37
sg37
I238
sS'Peoria'
p514
I41
sg249
I16
sS'Albuquerque'
p515
I6
sS'Sioux City'
p516
I37
sg21
I1515
sg158
I50
sS'Salt Lake City'
p517
I44
sg160
I37
sS'Colorado Springs'
p518
I11
sg42
I23
sS'Bridgeport'
p519
I48
sS'San Jose'
p520
I18
sS'Youngstown'
p521
I33
sS'Tucson'
p522
I5
sS'Hoboken'
p523
I43
sg49
I255
sg214
I13
sS'Cambridge'
p524
I70
sg51
I448
sS'Dayton'
p525
I61
sg53
I30
sS'Holyoke'
p526
I35
sS'Erie'
p527
I40
sS'Quincy'
p528
I31
sg442
I38
sS'Richmond'
p529
I81
sS'Providence'
p530
I132
sS'Louisville'
p531
I161
sg40
I242
sg169
I88
sg170
I105
sS'Lawrence'
p532
I44
sS'Brooklyn'
p533
I806
sS'Binghamton'
p534
I35
sg173
I64
sS'Lincoln'
p535
I55
sS'New Bedford'
p536
I40
sg203
I26
sg69
I25
sg178
I205
sS'Charleston'
p537
I54
sg180
I15
sg75
I3
sS'Worcester'
p538
I84
sS'Salem'
p539
I30
sg185
I261
sS'Oklahoma City'
p540
I4
sS'Somerville'
p541
I40
sS'Lancaster'
p542
I32
sg188
I1099
sS'Yonkers'
p543
I32
sg88
I1046
sS'Wilkes-Barre'
p544
I37
sS'Utica'
p545
I44
sS'Paterson'
p546
I78
sS'Syracuse'
p547
I88
sS'Springfield'
p548
I31
sS'Saginaw'
p549
I46
sS'Lowell'
p550
I77
sS'Reading'
p551
I58
sS'Phoenix'
p552
I3
sg192
I76
sS'Mobile'
p553
I31
sS'Grand Rapids'
p554
I60
sS'Hartford'
p555
I53
sg383
I17
sS'Lynn'
p556
I55
sg97
I29
sg292
I140
sS'Jersey City'
p557
I163
sS'Wilmington'
p558
I61
sg296
I38
sS'Duluth'
p559
I33
sS'Wheeling'
p560
I34
sg103
I434
sg105
I451
sS'Trenton'
p561
I57
sS'New Haven'
p562
I86
sS'Fall River'
p563
I74
sS'Elmira'
p564
I30
sS'Des Moines'
p565
I50
sg209
I204
sS'Portland'
p566
I36
sg305
I48
sg309
I19
sS'St. Paul'
p567
I133
ssI1891
(dp568
g492
I94
sg5
I22
sg6
I188
sg493
I38
sg494
I86
sg133
I302
sg135
I26
sg442
I38
sg11
I30
sg496
I11
sg497
I36
sg136
I67
sg553
I32
sg498
I35
sg499
I23
sg500
I78
sg212
I49
sg501
I34
sg54
I36
sg146
I13
sg24
I299
sg504
I11
sg505
I44
sg506
I45
sg27
I235
sg421
I23
sg239
I168
sg507
I60
sg508
I60
sg509
I107
sg335
I46
sg510
I136
sg33
I23
sg337
I109
sg511
I51
sg512
I57
sg513
I39
sg37
I246
sg514
I43
sg249
I16
sg515
I6
sg116
I37
sg40
I247
sg158
I55
sg517
I45
sg160
I39
sg518
I12
sg42
I24
sg519
I50
sg520
I18
sg521
I34
sg522
I5
sg523
I45
sg49
I265
sg214
I14
sg524
I72
sg51
I459
sg532
I46
sg117
I31
sg526
I36
sg527
I41
sg262
I50
sg529
I81
sg530
I136
sg531
I165
sg169
I92
sg170
I111
sg525
I63
sg534
I35
sg173
I68
sg535
I54
sg536
I42
sg561
I59
sg118
I26
sg178
I213
sg537
I54
sg180
I16
sg75
I4
sg538
I87
sg21
I1707
sg185
I273
sg540
I5
sg541
I42
sg542
I33
sg188
I1159
sg543
I34
sg88
I1071
sg544
I38
sg545
I45
sg546
I81
sg547
I90
sg548
I34
sg549
I46
sg550
I79
sg551
I60
sg552
I3
sg192
I76
sg495
I40
sg554
I63
sg555
I56
sg383
I18
sg556
I56
sg97
I29
sg292
I136
sg557
I167
sg558
I63
sg296
I39
sg559
I35
sg560
I34
sg103
I441
sg105
I463
sg203
I28
sg562
I88
sg563
I77
sg565
I51
sg209
I212
sg566
I41
sg305
I50
sg309
I20
sg567
I136
ssI1892
(dp569
g492
I94
sg5
I23
sg6
I195
sg493
I39
sg494
I91
sg133
I306
sg135
I26
sg442
I38
sg11
I32
sg496
I12
sg497
I37
sg136
I69
sg553
I33
sg498
I36
sg499
I25
sg500
I81
sg212
I50
sg501
I35
sg54
I36
sg146
I14
sg24
I302
sg504
I11
sg505
I45
sg506
I46
sg27
I240
sg421
I23
sg239
I172
sg507
I60
sg508
I62
sg509
I109
sg335
I50
sg510
I139
sg33
I24
sg337
I112
sg511
I52
sg512
I62
sg513
I41
sg37
I254
sg514
I45
sg249
I16
sg515
I6
sg116
I37
sg40
I252
sg158
I60
sg517
I46
sg160
I41
sg518
I13
sg42
I25
sg519
I52
sg520
I18
sg521
I35
sg522
I5
sg523
I47
sg49
I275
sg214
I15
sg524
I74
sg51
I470
sg532
I48
sg117
I32
sg526
I37
sg527
I42
sg262
I54
sg529
I81
sg530
I140
sg531
I169
sg169
I96
sg170
I117
sg525
I65
sg534
I35
sg173
I72
sg535
I53
sg536
I44
sg561
I61
sg118
I27
sg178
I221
sg537
I54
sg180
I17
sg75
I5
sg538
I90
sg21
I1899
sg185
I285
sg540
I6
sg541
I44
sg542
I34
sg188
I1219
sg543
I36
sg88
I1096
sg544
I39
sg545
I46
sg546
I84
sg547
I92
sg548
I37
sg549
I46
sg550
I81
sg551
I62
sg552
I3
sg192
I76
sg495
I41
sg554
I66
sg555
I59
sg383
I19
sg556
I57
sg97
I29
sg292
I132
sg557
I171
sg558
I65
sg296
I40
sg559
I37
sg560
I34
sg103
I448
sg105
I475
sg203
I30
sg562
I90
sg563
I80
sg565
I52
sg209
I220
sg566
I46
sg305
I52
sg309
I21
sg567
I139
ssI1893
(dp570
g492
I94
sg5
I24
sg6
I202
sg493
I40
sg494
I96
sg133
I310
sg135
I26
sg442
I38
sg11
I34
sg496
I13
sg497
I38
sg136
I71
sg553
I34
sg498
I37
sg499
I27
sg500
I84
sg212
I51
sg501
I36
sg54
I36
sg146
I15
sg24
I305
sg504
I11
sg505
I46
sg506
I47
sg27
I245
sg421
I23
sg239
I176
sg507
I60
sg508
I64
sg509
I111
sg335
I54
sg510
I142
sg33
I25
sg337
I115
sg511
I53
sg512
I67
sg513
I43
sg37
I262
sg514
I47
sg249
I16
sg515
I6
sg116
I37
sg40
I257
sg158
I65
sg517
I47
sg160
I43
sg518
I14
sg42
I26
sg519
I54
sg520
I18
sg521
I36
sg522
I5
sg523
I49
sg49
I285
sg214
I16
sg524
I76
sg51
I481
sg532
I50
sg117
I33
sg526
I38
sg527
I43
sg262
I58
sg529
I81
sg530
I144
sg531
I173
sg169
I100
sg170
I123
sg525
I67
sg534
I35
sg173
I76
sg535
I52
sg536
I46
sg561
I63
sg118
I28
sg178
I229
sg537
I54
sg180
I18
sg75
I6
sg538
I93
sg21
I2091
sg185
I297
sg540
I7
sg541
I46
sg542
I35
sg188
I1279
sg543
I38
sg88
I1121
sg544
I40
sg545
I47
sg546
I87
sg547
I94
sg548
I40
sg549
I46
sg550
I83
sg551
I64
sg552
I3
sg192
I76
sg495
I42
sg554
I69
sg555
I62
sg383
I20
sg556
I58
sg97
I29
sg292
I128
sg557
I175
sg558
I67
sg296
I41
sg559
I39
sg560
I34
sg103
I455
sg105
I487
sg203
I32
sg562
I92
sg563
I83
sg565
I53
sg209
I228
sg566
I51
sg305
I54
sg309
I22
sg567
I142
ssI1894
(dp571
g492
I94
sg5
I25
sg6
I209
sg493
I41
sg494
I101
sg133
I314
sg135
I26
sg442
I38
sg11
I36
sg496
I14
sg497
I39
sg136
I73
sg553
I35
sg498
I38
sg499
I29
sg500
I87
sg212
I52
sg501
I37
sg54
I36
sg146
I16
sg24
I308
sg504
I11
sg505
I47
sg506
I48
sg27
I250
sg421
I23
sg239
I180
sg507
I60
sg508
I66
sg509
I113
sg335
I58
sg510
I145
sg33
I26
sg337
I118
sg511
I54
sg512
I72
sg513
I45
sg37
I270
sg514
I49
sg249
I16
sg515
I6
sg116
I37
sg40
I262
sg158
I70
sg517
I48
sg160
I45
sg518
I15
sg42
I27
sg519
I56
sg520
I18
sg521
I37
sg522
I5
sg523
I51
sg49
I295
sg214
I17
sg524
I78
sg51
I492
sg532
I52
sg117
I34
sg526
I39
sg527
I44
sg262
I62
sg529
I81
sg530
I148
sg531
I177
sg169
I104
sg170
I129
sg525
I69
sg534
I35
sg173
I80
sg535
I51
sg536
I48
sg561
I65
sg118
I29
sg178
I237
sg537
I54
sg180
I19
sg75
I7
sg538
I96
sg21
I2283
sg185
I309
sg540
I8
sg541
I48
sg542
I36
sg188
I1339
sg543
I40
sg88
I1146
sg544
I41
sg545
I48
sg546
I90
sg547
I96
sg548
I43
sg549
I46
sg550
I85
sg551
I66
sg552
I3
sg192
I76
sg495
I43
sg554
I72
sg555
I65
sg383
I21
sg556
I59
sg97
I29
sg292
I124
sg557
I179
sg558
I69
sg296
I42
sg559
I41
sg560
I34
sg103
I462
sg105
I499
sg203
I34
sg562
I94
sg563
I86
sg565
I54
sg209
I236
sg566
I56
sg305
I56
sg309
I23
sg567
I145
ssI1895
(dp572
g492
I94
sg5
I26
sg6
I216
sg493
I42
sg494
I106
sg133
I318
sg135
I26
sg442
I38
sg11
I38
sg496
I15
sg497
I40
sg136
I75
sg553
I36
sg498
I39
sg499
I31
sg500
I90
sg212
I53
sg501
I38
sg54
I36
sg146
I17
sg24
I311
sg504
I11
sg505
I48
sg506
I49
sg27
I255
sg421
I23
sg239
I184
sg507
I60
sg508
I68
sg509
I115
sg335
I62
sg510
I148
sg33
I27
sg337
I121
sg511
I55
sg512
I77
sg513
I47
sg37
I278
sg514
I51
sg249
I16
sg515
I6
sg116
I37
sg40
I267
sg158
I75
sg517
I49
sg160
I47
sg518
I16
sg42
I28
sg519
I58
sg520
I18
sg521
I38
sg522
I5
sg523
I53
sg49
I305
sg214
I18
sg524
I80
sg51
I503
sg532
I54
sg117
I35
sg526
I40
sg527
I45
sg262
I66
sg529
I81
sg530
I152
sg531
I181
sg169
I108
sg170
I135
sg525
I71
sg534
I35
sg173
I84
sg535
I50
sg536
I50
sg561
I67
sg118
I30
sg178
I245
sg537
I54
sg180
I20
sg75
I8
sg538
I99
sg21
I2475
sg185
I321
sg540
I9
sg541
I50
sg542
I37
sg188
I1399
sg543
I42
sg88
I1171
sg544
I42
sg545
I49
sg546
I93
sg547
I98
sg548
I46
sg549
I46
sg550
I87
sg551
I68
sg552
I3
sg192
I76
sg495
I44
sg554
I75
sg555
I68
sg383
I22
sg556
I60
sg97
I29
sg292
I120
sg557
I183
sg558
I71
sg296
I43
sg559
I43
sg560
I34
sg103
I469
sg105
I511
sg203
I36
sg562
I96
sg563
I89
sg565
I55
sg209
I244
sg566
I61
sg305
I58
sg309
I24
sg567
I148
ssI1896
(dp573
g492
I94
sg5
I27
sg6
I223
sg493
I43
sg494
I111
sg133
I322
sg135
I26
sg442
I38
sg11
I40
sg496
I16
sg497
I41
sg136
I77
sg553
I37
sg498
I40
sg499
I33
sg500
I93
sg212
I54
sg501
I39
sg54
I36
sg146
I18
sg24
I314
sg504
I11
sg505
I49
sg506
I50
sg27
I260
sg421
I23
sg239
I188
sg507
I60
sg508
I70
sg509
I117
sg335
I66
sg510
I151
sg33
I28
sg337
I124
sg511
I56
sg512
I82
sg513
I49
sg37
I286
sg514
I53
sg249
I16
sg515
I6
sg116
I37
sg40
I272
sg158
I80
sg517
I50
sg160
I49
sg518
I17
sg42
I29
sg519
I60
sg520
I18
sg521
I39
sg522
I5
sg523
I55
sg49
I315
sg214
I19
sg524
I82
sg51
I514
sg532
I56
sg117
I36
sg526
I41
sg527
I46
sg262
I70
sg529
I81
sg530
I156
sg531
I185
sg169
I112
sg170
I141
sg525
I73
sg534
I35
sg173
I88
sg535
I49
sg536
I52
sg561
I69
sg118
I31
sg178
I253
sg537
I54
sg180
I21
sg75
I9
sg538
I102
sg21
I2667
sg185
I333
sg540
I10
sg541
I52
sg542
I38
sg188
I1459
sg543
I44
sg88
I1196
sg544
I43
sg545
I50
sg546
I96
sg547
I100
sg548
I49
sg549
I46
sg550
I89
sg551
I70
sg552
I3
sg192
I76
sg495
I45
sg554
I78
sg555
I71
sg383
I23
sg556
I61
sg97
I29
sg292
I116
sg557
I187
sg558
I73
sg296
I44
sg559
I45
sg560
I34
sg103
I476
sg105
I523
sg203
I38
sg562
I98
sg563
I92
sg565
I56
sg209
I252
sg566
I66
sg305
I60
sg309
I25
sg567
I151
ssI1897
(dp574
g492
I94
sg5
I28
sg6
I230
sg493
I44
sg494
I116
sg133
I326
sg135
I26
sg442
I38
sg11
I42
sg496
I17
sg497
I42
sg136
I79
sg553
I38
sg498
I41
sg499
I35
sg500
I96
sg212
I55
sg501
I40
sg54
I36
sg146
I19
sg24
I317
sg504
I11
sg505
I50
sg506
I51
sg27
I265
sg421
I23
sg239
I192
sg507
I60
sg508
I72
sg509
I119
sg335
I70
sg510
I154
sg33
I29
sg337
I127
sg511
I57
sg512
I87
sg513
I51
sg37
I294
sg514
I55
sg249
I16
sg515
I6
sg116
I37
sg40
I277
sg158
I85
sg517
I51
sg160
I51
sg518
I18
sg42
I30
sg519
I62
sg520
I18
sg521
I40
sg522
I5
sg523
I57
sg49
I325
sg214
I20
sg524
I84
sg51
I525
sg532
I58
sg117
I37
sg526
I42
sg527
I47
sg262
I74
sg529
I81
sg530
I160
sg531
I189
sg169
I116
sg170
I147
sg525
I75
sg534
I35
sg173
I92
sg535
I48
sg536
I54
sg561
I71
sg118
I32
sg178
I261
sg537
I54
sg180
I22
sg75
I10
sg538
I105
sg21
I2859
sg185
I345
sg540
I11
sg541
I54
sg542
I39
sg188
I1519
sg543
I46
sg88
I1221
sg544
I44
sg545
I51
sg546
I99
sg547
I102
sg548
I52
sg549
I46
sg550
I91
sg551
I72
sg552
I3
sg192
I76
sg495
I46
sg554
I81
sg555
I74
sg383
I24
sg556
I62
sg97
I29
sg292
I112
sg557
I191
sg558
I75
sg296
I45
sg559
I47
sg560
I34
sg103
I483
sg105
I535
sg203
I40
sg562
I100
sg563
I95
sg565
I57
sg209
I260
sg566
I71
sg305
I62
sg309
I26
sg567
I154
ssI1898
(dp575
g492
I94
sg5
I29
sg6
I237
sg493
I45
sg494
I121
sg133
I330
sg135
I26
sg442
I38
sg11
I44
sg496
I18
sg497
I43
sg136
I81
sg553
I39
sg498
I42
sg499
I37
sg500
I99
sg212
I56
sg501
I41
sg54
I36
sg146
I20
sg24
I320
sg504
I11
sg505
I51
sg506
I52
sg27
I270
sg421
I23
sg239
I196
sg507
I60
sg508
I74
sg509
I121
sg335
I74
sg510
I157
sg33
I30
sg337
I130
sg511
I58
sg512
I92
sg513
I53
sg37
I302
sg514
I57
sg249
I16
sg515
I6
sg116
I37
sg40
I282
sg158
I90
sg517
I52
sg160
I53
sg518
I19
sg42
I31
sg519
I64
sg520
I18
sg521
I41
sg522
I5
sg523
I59
sg49
I335
sg214
I21
sg524
I86
sg51
I536
sg532
I60
sg117
I38
sg526
I43
sg527
I48
sg262
I78
sg529
I81
sg530
I164
sg531
I193
sg169
I120
sg170
I153
sg525
I77
sg534
I35
sg173
I96
sg535
I47
sg536
I56
sg561
I73
sg118
I33
sg178
I269
sg537
I54
sg180
I23
sg75
I11
sg538
I108
sg21
I3051
sg185
I357
sg540
I12
sg541
I56
sg542
I40
sg188
I1579
sg543
I48
sg88
I1246
sg544
I45
sg545
I52
sg546
I102
sg547
I104
sg548
I55
sg549
I46
sg550
I93
sg551
I74
sg552
I3
sg192
I76
sg495
I47
sg554
I84
sg555
I77
sg383
I25
sg556
I63
sg97
I29
sg292
I108
sg557
I195
sg558
I77
sg296
I46
sg559
I49
sg560
I34
sg103
I490
sg105
I547
sg203
I42
sg562
I102
sg563
I98
sg565
I58
sg209
I268
sg566
I76
sg305
I64
sg309
I27
sg567
I157
ssI1899
(dp576
g492
I94
sg5
I30
sg6
I244
sg493
I46
sg494
I126
sg133
I334
sg135
I26
sg442
I38
sg11
I46
sg496
I19
sg497
I44
sg136
I83
sg553
I40
sg498
I43
sg499
I39
sg500
I102
sg212
I57
sg501
I42
sg54
I36
sg146
I21
sg24
I323
sg504
I11
sg505
I52
sg506
I53
sg27
I275
sg421
I23
sg239
I200
sg507
I60
sg508
I76
sg509
I123
sg335
I78
sg510
I160
sg33
I31
sg337
I133
sg511
I59
sg512
I97
sg513
I55
sg37
I310
sg514
I59
sg249
I16
sg515
I6
sg116
I37
sg40
I287
sg158
I95
sg517
I53
sg160
I55
sg518
I20
sg42
I32
sg519
I66
sg520
I18
sg521
I42
sg522
I5
sg523
I61
sg49
I345
sg214
I22
sg524
I88
sg51
I547
sg532
I62
sg117
I39
sg526
I44
sg527
I49
sg262
I82
sg529
I81
sg530
I168
sg531
I197
sg169
I124
sg170
I159
sg525
I79
sg534
I35
sg173
I100
sg535
I46
sg536
I58
sg561
I75
sg118
I34
sg178
I277
sg537
I54
sg180
I24
sg75
I12
sg538
I111
sg21
I3243
sg185
I369
sg540
I13
sg541
I58
sg542
I41
sg188
I1639
sg543
I50
sg88
I1271
sg544
I46
sg545
I53
sg546
I105
sg547
I106
sg548
I58
sg549
I46
sg550
I95
sg551
I76
sg552
I3
sg192
I76
sg495
I48
sg554
I87
sg555
I80
sg383
I26
sg556
I64
sg97
I29
sg292
I104
sg557
I199
sg558
I79
sg296
I47
sg559
I51
sg560
I34
sg103
I497
sg105
I559
sg203
I44
sg562
I104
sg563
I101
sg565
I59
sg209
I276
sg566
I81
sg305
I66
sg309
I28
sg567
I160
ssI1900
(dp577
S'Albany'
p578
I94
sg5
I30
sg6
I246
sS'Covington'
p579
I42
sS'Toledo'
p580
I131
sg133
I342
sS'Tulsa'
p581
I1
sg135
I29
sg442
I42
sS'Waterbury'
p582
I45
sg496
I16
sS'Fort Wayne'
p583
I45
sg136
I89
sS'Mobile'
p584
I38
sS'Norfolk'
p585
I46
sg499
I39
sS'Scranton'
p586
I102
sg212
I58
sS'Augusta'
p587
I39
sg54
I37
sg146
I19
sg24
I325
sg504
I12
sS'Savannah'
p588
I52
sS'Manchester'
p589
I56
sg27
I278
sg421
I27
sg239
I202
sS'Long Beach'
p590
I2
sS'Troy'
p591
I60
sS'Camden'
p592
I75
sS'Allegheny'
p593
I129
sg335
I80
sS'Pawtucket'
p594
I39
sS'Rochester'
p595
I162
sg33
I32
sg337
I133
sS'Evansville'
p596
I59
sS'St. Joseph'
p597
I102
sS'Elizabeth'
p598
I52
sg37
I321
sS'Miami'
p599
I2
sS'Peoria'
p600
I56
sg249
I18
sg515
I6
sg39
I33
sg40
I287
sg158
I102
sS'Salt Lake City'
p601
I53
sS'Brockton'
p602
I40
sg160
I53
sg518
I21
sg42
I31
sS'Bridgeport'
p603
I70
sg520
I22
sS'Youngstown'
p604
I44
sg522
I8
sS'Hoboken'
p605
I59
sg49
I352
sg214
I19
sS'Cambridge'
p606
I91
sg51
I560
sS'Dayton'
p607
I85
sg53
I36
sS'Altoona'
p608
I38
sS'Holyoke'
p609
I45
sS'Erie'
p610
I52
sg262
I90
sS'Richmond'
p611
I85
sS'Providence'
p612
I175
sS'Louisville'
p613
I204
sg169
I125
sg170
I169
sS'Lawrence'
p614
I62
sS'Binghamton'
p615
I39
sS'Akron'
p616
I42
sg173
I102
sS'Lincoln'
p617
I40
sS'New Bedford'
p618
I62
sg203
I44
sS'Little Rock'
p619
I38
sg178
I285
sS'Charleston'
p620
I55
sg180
I22
sg75
I10
sS'Worcester'
p621
I118
sg21
I3437
sS'Birmingham'
p622
I38
sg185
I381
sg540
I10
sS'Somerville'
p623
I61
sS'Lancaster'
p624
I41
sg188
I1698
sS'Yonkers'
p625
I47
sg88
I1293
sS'Wilkes-Barre'
p626
I51
sS'Utica'
p627
I56
sS'Paterson'
p628
I105
sS'Syracuse'
p629
I108
sS'Springfield'
p630
I62
sS'Saginaw'
p631
I42
sS'Lowell'
p632
I94
sS'Reading'
p633
I78
sg552
I6
sg192
I80
sS'Harrisburg'
p634
I50
sS'Grand Rapids'
p635
I87
sS'Hartford'
p636
I79
sg383
I28
sS'Lynn'
p637
I68
sg97
I30
sg292
I102
sS'Jersey City'
p638
I206
sS'Wilmington'
p639
I76
sg296
I51
sS'Duluth'
p640
I52
sS'Wheeling'
p641
I38
sg103
I508
sg105
I575
sS'Trenton'
p642
I73
sS'New Haven'
p643
I108
sS'Fall River'
p644
I104
sS'Des Moines'
p645
I62
sg209
I285
sS'Portland'
p646
I90
sg305
I66
sg309
I31
sS'St. Paul'
p647
I163
ssI1901
(dp648
g578
I95
sg5
I31
sg6
I256
sg580
I135
sg133
I349
sg581
I3
sg634
I51
sg135
I31
sg262
I102
sg582
I48
sg496
I18
sg583
I47
sg136
I96
sS'Mobile'
p649
I39
sg585
I48
sg158
I124
sg599
I2
sg212
I59
sg54
I42
sg146
I21
sg24
I329
sg504
I13
sg588
I53
sg589
I57
sg27
I283
sg421
I32
sg239
I212
sg590
I4
sg591
I62
sg592
I77
sg335
I96
sg595
I168
sg33
I32
sg337
I141
sg596
I60
sg597
I100
sg598
I54
sg37
I342
sg600
I57
sg249
I20
sg515
I7
sg116
I34
sg40
I292
sg499
I40
sg601
I57
sg602
I42
sg160
I57
sg518
I22
sg42
I32
sg603
I73
sg520
I23
sg604
I48
sg522
I9
sg605
I60
sg49
I359
sg214
I20
sg606
I92
sg51
I571
sg614
I64
sg117
I38
sg609
I46
sg610
I53
sg442
I47
sg611
I89
sg612
I180
sg613
I206
sg169
I131
sg170
I175
sg607
I88
sg616
I45
sg173
I105
sg65
I40
sg618
I65
sg642
I75
sg118
I39
sg178
I303
sg620
I55
sg180
I23
sg75
I11
sg621
I121
sg21
I3570
sg622
I47
sg185
I399
sg540
I15
sg623
I63
sg188
I1747
sg625
I50
sg88
I1319
sg626
I53
sg627
I58
sg628
I107
sg629
I111
sg630
I65
sg632
I95
sg633
I80
sg552
I7
sg192
I83
sg586
I105
sg635
I90
sg636
I81
sg383
I31
sg637
I70
sg97
I31
sg292
I104
sg638
I212
sg639
I77
sg296
I54
sg640
I55
sg103
I513
sg105
I586
sg203
I47
sg643
I111
sg644
I106
sg645
I64
sg209
I294
sg646
I87
sg305
I74
sg309
I35
sg647
I168
ssI1902
(dp650
g578
I96
sg5
I32
sg6
I266
sg580
I139
sg133
I356
sg581
I5
sg634
I52
sg135
I33
sg262
I114
sg582
I51
sg496
I20
sg583
I49
sg136
I103
sg649
I40
sg585
I50
sg158
I146
sg599
I2
sg212
I60
sg54
I47
sg146
I23
sg24
I333
sg504
I14
sg588
I54
sg589
I58
sg27
I288
sg421
I37
sg239
I222
sg590
I6
sg591
I64
sg592
I79
sg335
I112
sg595
I174
sg33
I32
sg337
I149
sg596
I61
sg597
I98
sg598
I56
sg37
I363
sg600
I58
sg249
I22
sg515
I8
sg116
I35
sg40
I297
sg499
I41
sg601
I61
sg602
I44
sg160
I61
sg518
I23
sg42
I33
sg603
I76
sg520
I24
sg604
I52
sg522
I10
sg605
I61
sg49
I366
sg214
I21
sg606
I93
sg51
I582
sg614
I66
sg117
I40
sg609
I47
sg610
I54
sg442
I52
sg611
I93
sg612
I185
sg613
I208
sg169
I137
sg170
I181
sg607
I91
sg616
I48
sg173
I108
sg65
I40
sg618
I68
sg642
I77
sg118
I40
sg178
I321
sg620
I55
sg180
I24
sg75
I12
sg621
I124
sg21
I3703
sg622
I56
sg185
I417
sg540
I20
sg623
I65
sg188
I1796
sg625
I53
sg88
I1345
sg626
I55
sg627
I60
sg628
I109
sg629
I114
sg630
I68
sg632
I96
sg633
I82
sg552
I8
sg192
I86
sg586
I108
sg635
I93
sg636
I83
sg383
I34
sg637
I72
sg97
I32
sg292
I106
sg638
I218
sg639
I78
sg296
I57
sg640
I58
sg103
I518
sg105
I597
sg203
I50
sg643
I114
sg644
I108
sg645
I66
sg209
I303
sg646
I84
sg305
I82
sg309
I39
sg647
I173
ssI1903
(dp651
g578
I97
sg5
I33
sg6
I276
sg580
I143
sg133
I363
sg581
I7
sg634
I53
sg135
I35
sg262
I126
sg582
I54
sg496
I22
sg583
I51
sg136
I110
sg649
I41
sg585
I52
sg158
I168
sg599
I2
sg212
I61
sg54
I52
sg146
I25
sg24
I337
sg504
I15
sg588
I55
sg589
I59
sg27
I293
sg421
I42
sg239
I232
sg590
I8
sg591
I66
sg592
I81
sg335
I128
sg595
I180
sg33
I32
sg337
I157
sg596
I62
sg597
I96
sg598
I58
sg37
I384
sg600
I59
sg249
I24
sg515
I9
sg116
I36
sg40
I302
sg499
I42
sg601
I65
sg602
I46
sg160
I65
sg518
I24
sg42
I34
sg603
I79
sg520
I25
sg604
I56
sg522
I11
sg605
I62
sg49
I373
sg214
I22
sg606
I94
sg51
I593
sg614
I68
sg117
I42
sg609
I48
sg610
I55
sg442
I57
sg611
I97
sg612
I190
sg613
I210
sg169
I143
sg170
I187
sg607
I94
sg616
I51
sg173
I111
sg65
I40
sg618
I71
sg642
I79
sg118
I41
sg178
I339
sg620
I55
sg180
I25
sg75
I13
sg621
I127
sg21
I3836
sg622
I65
sg185
I435
sg540
I25
sg623
I67
sg188
I1845
sg625
I56
sg88
I1371
sg626
I57
sg627
I62
sg628
I111
sg629
I117
sg630
I71
sg632
I97
sg633
I84
sg552
I9
sg192
I89
sg586
I111
sg635
I96
sg636
I85
sg383
I37
sg637
I74
sg97
I33
sg292
I108
sg638
I224
sg639
I79
sg296
I60
sg640
I61
sg103
I523
sg105
I608
sg203
I53
sg643
I117
sg644
I110
sg645
I68
sg209
I312
sg646
I81
sg305
I90
sg309
I43
sg647
I178
ssI1904
(dp652
g578
I98
sg5
I34
sg6
I286
sg580
I147
sg133
I370
sg581
I9
sg634
I54
sg135
I37
sg262
I138
sg582
I57
sg496
I24
sg583
I53
sg136
I117
sg649
I42
sg585
I54
sg158
I190
sg599
I2
sg212
I62
sg54
I57
sg146
I27
sg24
I341
sg504
I16
sg588
I56
sg589
I60
sg27
I298
sg421
I47
sg239
I242
sg590
I10
sg591
I68
sg592
I83
sg335
I144
sg595
I186
sg33
I32
sg337
I165
sg596
I63
sg597
I94
sg598
I60
sg37
I405
sg600
I60
sg249
I26
sg515
I10
sg116
I37
sg40
I307
sg499
I43
sg601
I69
sg602
I48
sg160
I69
sg518
I25
sg42
I35
sg603
I82
sg520
I26
sg604
I60
sg522
I12
sg605
I63
sg49
I380
sg214
I23
sg606
I95
sg51
I604
sg614
I70
sg117
I44
sg609
I49
sg610
I56
sg442
I62
sg611
I101
sg612
I195
sg613
I212
sg169
I149
sg170
I193
sg607
I97
sg616
I54
sg173
I114
sg65
I40
sg618
I74
sg642
I81
sg118
I42
sg178
I357
sg620
I55
sg180
I26
sg75
I14
sg621
I130
sg21
I3969
sg622
I74
sg185
I453
sg540
I30
sg623
I69
sg188
I1894
sg625
I59
sg88
I1397
sg626
I59
sg627
I64
sg628
I113
sg629
I120
sg630
I74
sg632
I98
sg633
I86
sg552
I10
sg192
I92
sg586
I114
sg635
I99
sg636
I87
sg383
I40
sg637
I76
sg97
I34
sg292
I110
sg638
I230
sg639
I80
sg296
I63
sg640
I64
sg103
I528
sg105
I619
sg203
I56
sg643
I120
sg644
I112
sg645
I70
sg209
I321
sg646
I78
sg305
I98
sg309
I47
sg647
I183
ssI1905
(dp653
g578
I99
sg5
I35
sg6
I296
sg580
I151
sg133
I377
sg581
I11
sg634
I55
sg135
I39
sg262
I150
sg582
I60
sg496
I26
sg583
I55
sg136
I124
sg649
I43
sg585
I56
sg158
I212
sg599
I2
sg212
I63
sg54
I62
sg146
I29
sg24
I345
sg504
I17
sg588
I57
sg589
I61
sg27
I303
sg421
I52
sg239
I252
sg590
I12
sg591
I70
sg592
I85
sg335
I160
sg595
I192
sg33
I32
sg337
I173
sg596
I64
sg597
I92
sg598
I62
sg37
I426
sg600
I61
sg249
I28
sg515
I11
sg116
I38
sg40
I312
sg499
I44
sg601
I73
sg602
I50
sg160
I73
sg518
I26
sg42
I36
sg603
I85
sg520
I27
sg604
I64
sg522
I13
sg605
I64
sg49
I387
sg214
I24
sg606
I96
sg51
I615
sg614
I72
sg117
I46
sg609
I50
sg610
I57
sg442
I67
sg611
I105
sg612
I200
sg613
I214
sg169
I155
sg170
I199
sg607
I100
sg616
I57
sg173
I117
sg65
I40
sg618
I77
sg642
I83
sg118
I43
sg178
I375
sg620
I55
sg180
I27
sg75
I15
sg621
I133
sg21
I4102
sg622
I83
sg185
I471
sg540
I35
sg623
I71
sg188
I1943
sg625
I62
sg88
I1423
sg626
I61
sg627
I66
sg628
I115
sg629
I123
sg630
I77
sg632
I99
sg633
I88
sg552
I11
sg192
I95
sg586
I117
sg635
I102
sg636
I89
sg383
I43
sg637
I78
sg97
I35
sg292
I112
sg638
I236
sg639
I81
sg296
I66
sg640
I67
sg103
I533
sg105
I630
sg203
I59
sg643
I123
sg644
I114
sg645
I72
sg209
I330
sg646
I75
sg305
I106
sg309
I51
sg647
I188
ssI1906
(dp654
g578
I100
sg5
I36
sg6
I306
sg580
I155
sg133
I384
sg581
I13
sg634
I56
sg135
I41
sg262
I162
sg582
I63
sg496
I28
sg583
I57
sg136
I131
sg649
I44
sg585
I58
sg158
I234
sg599
I2
sg212
I64
sg54
I67
sg146
I31
sg24
I349
sg504
I18
sg588
I58
sg589
I62
sg27
I308
sg421
I57
sg239
I262
sg590
I14
sg591
I72
sg592
I87
sg335
I176
sg595
I198
sg33
I32
sg337
I181
sg596
I65
sg597
I90
sg598
I64
sg37
I447
sg600
I62
sg249
I30
sg515
I12
sg116
I39
sg40
I317
sg499
I45
sg601
I77
sg602
I52
sg160
I77
sg518
I27
sg42
I37
sg603
I88
sg520
I28
sg604
I68
sg522
I14
sg605
I65
sg49
I394
sg214
I25
sg606
I97
sg51
I626
sg614
I74
sg117
I48
sg609
I51
sg610
I58
sg442
I72
sg611
I109
sg612
I205
sg613
I216
sg169
I161
sg170
I205
sg607
I103
sg616
I60
sg173
I120
sg65
I40
sg618
I80
sg642
I85
sg118
I44
sg178
I393
sg620
I55
sg180
I28
sg75
I16
sg621
I136
sg21
I4235
sg622
I92
sg185
I489
sg540
I40
sg623
I73
sg188
I1992
sg625
I65
sg88
I1449
sg626
I63
sg627
I68
sg628
I117
sg629
I126
sg630
I80
sg632
I100
sg633
I90
sg552
I12
sg192
I98
sg586
I120
sg635
I105
sg636
I91
sg383
I46
sg637
I80
sg97
I36
sg292
I114
sg638
I242
sg639
I82
sg296
I69
sg640
I70
sg103
I538
sg105
I641
sg203
I62
sg643
I126
sg644
I116
sg645
I74
sg209
I339
sg646
I72
sg305
I114
sg309
I55
sg647
I193
ssI1907
(dp655
g578
I101
sg5
I37
sg6
I316
sg580
I159
sg133
I391
sg581
I15
sg634
I57
sg135
I43
sg262
I174
sg582
I66
sg496
I30
sg583
I59
sg136
I138
sg649
I45
sg585
I60
sg158
I256
sg599
I2
sg212
I65
sg54
I72
sg146
I33
sg24
I353
sg504
I19
sg588
I59
sg589
I63
sg27
I313
sg421
I62
sg239
I272
sg590
I16
sg591
I74
sg592
I89
sg335
I192
sg595
I204
sg33
I32
sg337
I189
sg596
I66
sg597
I88
sg598
I66
sg37
I468
sg600
I63
sg249
I32
sg515
I13
sg116
I40
sg40
I322
sg499
I46
sg601
I81
sg602
I54
sg160
I81
sg518
I28
sg42
I38
sg603
I91
sg520
I29
sg604
I72
sg522
I15
sg605
I66
sg49
I401
sg214
I26
sg606
I98
sg51
I637
sg614
I76
sg117
I50
sg609
I52
sg610
I59
sg442
I77
sg611
I113
sg612
I210
sg613
I218
sg169
I167
sg170
I211
sg607
I106
sg616
I63
sg173
I123
sg65
I40
sg618
I83
sg642
I87
sg118
I45
sg178
I411
sg620
I55
sg180
I29
sg75
I17
sg621
I139
sg21
I4368
sg622
I101
sg185
I507
sg540
I45
sg623
I75
sg188
I2041
sg625
I68
sg88
I1475
sg626
I65
sg627
I70
sg628
I119
sg629
I129
sg630
I83
sg632
I101
sg633
I92
sg552
I13
sg192
I101
sg586
I123
sg635
I108
sg636
I93
sg383
I49
sg637
I82
sg97
I37
sg292
I116
sg638
I248
sg639
I83
sg296
I72
sg640
I73
sg103
I543
sg105
I652
sg203
I65
sg643
I129
sg644
I118
sg645
I76
sg209
I348
sg646
I69
sg305
I122
sg309
I59
sg647
I198
ssI1908
(dp656
g578
I102
sg5
I38
sg6
I326
sg580
I163
sg133
I398
sg581
I17
sg634
I58
sg135
I45
sg262
I186
sg582
I69
sg496
I32
sg583
I61
sg136
I145
sg649
I46
sg585
I62
sg158
I278
sg599
I2
sg212
I66
sg54
I77
sg146
I35
sg24
I357
sg504
I20
sg588
I60
sg589
I64
sg27
I318
sg421
I67
sg239
I282
sg590
I18
sg591
I76
sg592
I91
sg335
I208
sg595
I210
sg33
I32
sg337
I197
sg596
I67
sg597
I86
sg598
I68
sg37
I489
sg600
I64
sg249
I34
sg515
I14
sg116
I41
sg40
I327
sg499
I47
sg601
I85
sg602
I56
sg160
I85
sg518
I29
sg42
I39
sg603
I94
sg520
I30
sg604
I76
sg522
I16
sg605
I67
sg49
I408
sg214
I27
sg606
I99
sg51
I648
sg614
I78
sg117
I52
sg609
I53
sg610
I60
sg442
I82
sg611
I117
sg612
I215
sg613
I220
sg169
I173
sg170
I217
sg607
I109
sg616
I66
sg173
I126
sg65
I40
sg618
I86
sg642
I89
sg118
I46
sg178
I429
sg620
I55
sg180
I30
sg75
I18
sg621
I142
sg21
I4501
sg622
I110
sg185
I525
sg540
I50
sg623
I77
sg188
I2090
sg625
I71
sg88
I1501
sg626
I67
sg627
I72
sg628
I121
sg629
I132
sg630
I86
sg632
I102
sg633
I94
sg552
I14
sg192
I104
sg586
I126
sg635
I111
sg636
I95
sg383
I52
sg637
I84
sg97
I38
sg292
I118
sg638
I254
sg639
I84
sg296
I75
sg640
I76
sg103
I548
sg105
I663
sg203
I68
sg643
I132
sg644
I120
sg645
I78
sg209
I357
sg646
I66
sg305
I130
sg309
I63
sg647
I203
ssI1909
(dp657
g578
I103
sg5
I39
sg6
I336
sg580
I167
sg133
I405
sg581
I19
sg634
I59
sg135
I47
sg262
I198
sg582
I72
sg496
I34
sg583
I63
sg136
I152
sg649
I47
sg585
I64
sg158
I300
sg599
I2
sg212
I67
sg54
I82
sg146
I37
sg24
I361
sg504
I21
sg588
I61
sg589
I65
sg27
I323
sg421
I72
sg239
I292
sg590
I20
sg591
I78
sg592
I93
sg335
I224
sg595
I216
sg33
I32
sg337
I205
sg596
I68
sg597
I84
sg598
I70
sg37
I510
sg600
I65
sg249
I36
sg515
I15
sg116
I42
sg40
I332
sg499
I48
sg601
I89
sg602
I58
sg160
I89
sg518
I30
sg42
I40
sg603
I97
sg520
I31
sg604
I80
sg522
I17
sg605
I68
sg49
I415
sg214
I28
sg606
I100
sg51
I659
sg614
I80
sg117
I54
sg609
I54
sg610
I61
sg442
I87
sg611
I121
sg612
I220
sg613
I222
sg169
I179
sg170
I223
sg607
I112
sg616
I69
sg173
I129
sg65
I40
sg618
I89
sg642
I91
sg118
I47
sg178
I447
sg620
I55
sg180
I31
sg75
I19
sg621
I145
sg21
I4634
sg622
I119
sg185
I543
sg540
I55
sg623
I79
sg188
I2139
sg625
I74
sg88
I1527
sg626
I69
sg627
I74
sg628
I123
sg629
I135
sg630
I89
sg632
I103
sg633
I96
sg552
I15
sg192
I107
sg586
I129
sg635
I114
sg636
I97
sg383
I55
sg637
I86
sg97
I39
sg292
I120
sg638
I260
sg639
I85
sg296
I78
sg640
I79
sg103
I553
sg105
I674
sg203
I71
sg643
I135
sg644
I122
sg645
I80
sg209
I366
sg646
I63
sg305
I138
sg309
I67
sg647
I208
ssI1910
(dp658
S'Albany'
p659
I100
sg5
I38
sg6
I347
sS'Toledo'
p660
I168
sg133
I416
sg581
I18
sS'Harrisburg'
p661
I64
sg135
I45
sS'Bayonne'
p662
I55
sS'Waterbury'
p663
I73
sg496
I39
sS'Fort Wayne'
p664
I63
sg136
I154
sg649
I51
sS'Norfolk'
p665
I67
sg499
I52
sg146
I34
sS'Scranton'
p666
I129
sg212
I68
sS'Tacoma'
p667
I83
sS'Richmond'
p668
I127
sg24
I363
sg504
I25
sS'Savannah'
p669
I65
sS'Manchester'
p670
I70
sg27
I331
sg421
I73
sg239
I301
sg590
I18
sS'Troy'
p671
I76
sS'Camden'
p672
I94
sg335
I237
sS'Rochester'
p673
I218
sg33
I36
sg337
I213
sS'Reading'
p674
I96
sS'St. Joseph'
p675
I77
sS'Elizabeth'
p676
I73
sS'Passaic'
p677
I54
sg37
I533
sS'Peoria'
p678
I66
sg249
I40
sg515
I11
sg39
I47
sg21
I4766
sg158
I319
sS'Salt Lake City'
p679
I92
sS'Brockton'
p680
I56
sg160
I96
sg518
I29
sg42
I45
sS'Spokane'
p681
I104
sS'Bridgeport'
p682
I102
sg520
I29
sS'Youngstown'
p683
I79
sg522
I13
sS'Hoboken'
p684
I70
sg49
I423
sg214
I25
sS'Cambridge'
p685
I104
sg51
I670
sS'Lawrence'
p686
I85
sS'Terre Haute'
p687
I58
sS'Holyoke'
p688
I57
sS'Las Vegas'
p689
I2
sS'Erie'
p690
I66
sg262
I207
sg442
I92
sS'Providence'
p691
I224
sS'Louisville'
p692
I223
sg169
I181
sg170
I233
sS'Dayton'
p693
I116
sS'South Bend'
p694
I53
sS'Akron'
p695
I69
sg173
I131
sg65
I44
sS'New Bedford'
p696
I96
sg203
I78
sg69
I46
sg178
I465
sS'Charleston'
p697
I58
sg180
I30
sg75
I15
sS'Worcester'
p698
I145
sg40
I339
sS'Birmingham'
p699
I132
sg185
I560
sg540
I64
sS'Somerville'
p700
I77
sg188
I2185
sS'Yonkers'
p701
I79
sg88
I1549
sS'Wilkes-Barre'
p702
I67
sS'Utica'
p703
I74
sS'Paterson'
p704
I125
sS'Syracuse'
p705
I137
sS'Springfield'
p706
I88
sS'Lowell'
p707
I106
sS'Evansville'
p708
I69
sg552
I11
sg192
I110
sg599
I5
sS'Grand Rapids'
p709
I112
sS'Hartford'
p710
I98
sg383
I57
sS'Johnstown'
p711
I55
sS'Lynn'
p712
I89
sg97
I44
sg292
I124
sS'Jersey City'
p713
I267
sS'Wilmington'
p714
I87
sg296
I82
sS'Duluth'
p715
I78
sg103
I558
sg105
I687
sS'Trenton'
p716
I96
sS'New Haven'
p717
I133
sS'Fall River'
p718
I119
sS'Des Moines'
p719
I86
sS'East St. Louis'
p720
I58
sg209
I373
sS'Portland'
p721
I58
sg305
I150
sS'Schenectady'
p722
I72
sS'St. Paul'
p723
I214
ssI1911
(dp724
g659
I101
sg5
I39
sg6
I354
sg660
I176
sg133
I425
sg581
I23
sg135
I47
sg662
I57
sg663
I75
sg496
I43
sg664
I65
sg136
I159
sg649
I52
sg665
I72
sg158
I345
sg666
I130
sg212
I69
sg146
I35
sg24
I367
sg504
I27
sg669
I67
sg670
I71
sg27
I342
sg421
I76
sg239
I309
sg590
I22
sg671
I76
sg672
I96
sg335
I245
sg673
I226
sg33
I40
sg337
I217
sg698
I148
sg708
I71
sg675
I77
sg676
I75
sg37
I539
sg599
I8
sg678
I67
sg249
I43
sg515
I11
sg116
I49
sg21
I4851
sg499
I55
sg679
I95
sg160
I103
sg705
I140
sg42
I47
sg681
I104
sg682
I106
sg520
I30
sg683
I84
sg522
I14
sg49
I431
sg214
I26
sg685
I105
sg51
I678
sg686
I86
sg117
I59
sg689
I2
sg690
I69
sg262
I212
sg668
I131
sg691
I225
sg692
I224
sg169
I187
sg170
I241
sg693
I120
sg694
I55
sg695
I83
sg173
I134
sg65
I45
sg696
I99
sg716
I98
sg118
I48
sg178
I518
sg717
I136
sg180
I31
sg75
I15
sg442
I99
sg518
I29
sg40
I344
sg699
I137
sg185
I584
sg540
I67
sg700
I79
sg188
I2237
sg701
I81
sg88
I1576
sg702
I68
sg703
I76
sg704
I126
sg706
I92
sg707
I107
sg674
I97
sg552
I13
sg192
I111
sg661
I65
sg709
I115
sg710
I102
sg383
I60
sg712
I90
sg97
I45
sg292
I131
sg713
I270
sg714
I89
sg296
I84
sg715
I80
sg103
I576
sg105
I696
sg203
I84
sg667
I84
sg718
I119
sg719
I90
sg209
I381
sg721
I78
sg305
I157
sg722
I74
sg723
I216
ssI1912
(dp725
g659
I102
sg5
I40
sg6
I361
sg660
I184
sg133
I434
sg581
I28
sg135
I49
sg662
I59
sg663
I77
sg496
I47
sg664
I67
sg136
I164
sg649
I53
sg665
I77
sg158
I371
sg666
I131
sg212
I70
sg146
I36
sg24
I371
sg504
I29
sg669
I69
sg670
I72
sg27
I353
sg421
I79
sg239
I317
sg590
I26
sg671
I76
sg672
I98
sg335
I253
sg673
I234
sg33
I44
sg337
I221
sg698
I151
sg708
I73
sg675
I77
sg676
I77
sg37
I545
sg599
I11
sg678
I68
sg249
I46
sg515
I11
sg116
I51
sg21
I4936
sg499
I58
sg679
I98
sg160
I110
sg705
I143
sg42
I49
sg681
I104
sg682
I110
sg520
I31
sg683
I89
sg522
I15
sg49
I439
sg214
I27
sg685
I106
sg51
I686
sg686
I87
sg117
I60
sg689
I2
sg690
I72
sg262
I217
sg668
I135
sg691
I226
sg692
I225
sg169
I193
sg170
I249
sg693
I124
sg694
I57
sg695
I97
sg173
I137
sg65
I46
sg696
I102
sg716
I100
sg118
I50
sg178
I571
sg717
I139
sg180
I32
sg75
I15
sg442
I106
sg518
I29
sg40
I349
sg699
I142
sg185
I608
sg540
I70
sg700
I81
sg188
I2289
sg701
I83
sg88
I1603
sg702
I69
sg703
I78
sg704
I127
sg706
I96
sg707
I108
sg674
I98
sg552
I15
sg192
I112
sg661
I66
sg709
I118
sg710
I106
sg383
I63
sg712
I91
sg97
I46
sg292
I138
sg713
I273
sg714
I91
sg296
I86
sg715
I82
sg103
I594
sg105
I705
sg203
I90
sg667
I85
sg718
I119
sg719
I94
sg209
I389
sg721
I98
sg305
I164
sg722
I76
sg723
I218
ssI1913
(dp726
g659
I103
sg5
I41
sg6
I368
sg660
I192
sg133
I443
sg581
I33
sg135
I51
sg662
I61
sg663
I79
sg496
I51
sg664
I69
sg136
I169
sg649
I54
sg665
I82
sg158
I397
sg666
I132
sg212
I71
sg146
I37
sg24
I375
sg504
I31
sg669
I71
sg670
I73
sg27
I364
sg421
I82
sg239
I325
sg590
I30
sg671
I76
sg672
I100
sg335
I261
sg673
I242
sg33
I48
sg337
I225
sg698
I154
sg708
I75
sg675
I77
sg676
I79
sg37
I551
sg599
I14
sg678
I69
sg249
I49
sg515
I11
sg116
I53
sg21
I5021
sg499
I61
sg679
I101
sg160
I117
sg705
I146
sg42
I51
sg681
I104
sg682
I114
sg520
I32
sg683
I94
sg522
I16
sg49
I447
sg214
I28
sg685
I107
sg51
I694
sg686
I88
sg117
I61
sg689
I2
sg690
I75
sg262
I222
sg668
I139
sg691
I227
sg692
I226
sg169
I199
sg170
I257
sg693
I128
sg694
I59
sg695
I111
sg173
I140
sg65
I47
sg696
I105
sg716
I102
sg118
I52
sg178
I624
sg717
I142
sg180
I33
sg75
I15
sg442
I113
sg518
I29
sg40
I354
sg699
I147
sg185
I632
sg540
I73
sg700
I83
sg188
I2341
sg701
I85
sg88
I1630
sg702
I70
sg703
I80
sg704
I128
sg706
I100
sg707
I109
sg674
I99
sg552
I17
sg192
I113
sg661
I67
sg709
I121
sg710
I110
sg383
I66
sg712
I92
sg97
I47
sg292
I145
sg713
I276
sg714
I93
sg296
I88
sg715
I84
sg103
I612
sg105
I714
sg203
I96
sg667
I86
sg718
I119
sg719
I98
sg209
I397
sg721
I118
sg305
I171
sg722
I78
sg723
I220
ssI1914
(dp727
g659
I104
sg5
I42
sg6
I375
sg660
I200
sg133
I452
sg581
I38
sg135
I53
sg662
I63
sg663
I81
sg496
I55
sg664
I71
sg136
I174
sg649
I55
sg665
I87
sg158
I423
sg666
I133
sg212
I72
sg146
I38
sg24
I379
sg504
I33
sg669
I73
sg670
I74
sg27
I375
sg421
I85
sg239
I333
sg590
I34
sg671
I76
sg672
I102
sg335
I269
sg673
I250
sg33
I52
sg337
I229
sg698
I157
sg708
I77
sg675
I77
sg676
I81
sg37
I557
sg599
I17
sg678
I70
sg249
I52
sg515
I11
sg116
I55
sg21
I5106
sg499
I64
sg679
I104
sg160
I124
sg705
I149
sg42
I53
sg681
I104
sg682
I118
sg520
I33
sg683
I99
sg522
I17
sg49
I455
sg214
I29
sg685
I108
sg51
I702
sg686
I89
sg117
I62
sg689
I2
sg690
I78
sg262
I227
sg668
I143
sg691
I228
sg692
I227
sg169
I205
sg170
I265
sg693
I132
sg694
I61
sg695
I125
sg173
I143
sg65
I48
sg696
I108
sg716
I104
sg118
I54
sg178
I677
sg717
I145
sg180
I34
sg75
I15
sg442
I120
sg518
I29
sg40
I359
sg699
I152
sg185
I656
sg540
I76
sg700
I85
sg188
I2393
sg701
I87
sg88
I1657
sg702
I71
sg703
I82
sg704
I129
sg706
I104
sg707
I110
sg674
I100
sg552
I19
sg192
I114
sg661
I68
sg709
I124
sg710
I114
sg383
I69
sg712
I93
sg97
I48
sg292
I152
sg713
I279
sg714
I95
sg296
I90
sg715
I86
sg103
I630
sg105
I723
sg203
I102
sg667
I87
sg718
I119
sg719
I102
sg209
I405
sg721
I138
sg305
I178
sg722
I80
sg723
I222
ssI1915
(dp728
g659
I105
sg5
I43
sg6
I382
sg660
I208
sg133
I461
sg581
I43
sg135
I55
sg662
I65
sg663
I83
sg496
I59
sg664
I73
sg136
I179
sg649
I56
sg665
I92
sg158
I449
sg666
I134
sg212
I73
sg146
I39
sg24
I383
sg504
I35
sg669
I75
sg670
I75
sg27
I386
sg421
I88
sg239
I341
sg590
I38
sg671
I76
sg672
I104
sg335
I277
sg673
I258
sg33
I56
sg337
I233
sg698
I160
sg708
I79
sg675
I77
sg676
I83
sg37
I563
sg599
I20
sg678
I71
sg249
I55
sg515
I11
sg116
I57
sg21
I5191
sg499
I67
sg679
I107
sg160
I131
sg705
I152
sg42
I55
sg681
I104
sg682
I122
sg520
I34
sg683
I104
sg522
I18
sg49
I463
sg214
I30
sg685
I109
sg51
I710
sg686
I90
sg117
I63
sg689
I2
sg690
I81
sg262
I232
sg668
I147
sg691
I229
sg692
I228
sg169
I211
sg170
I273
sg693
I136
sg694
I63
sg695
I139
sg173
I146
sg65
I49
sg696
I111
sg716
I106
sg118
I56
sg178
I730
sg717
I148
sg180
I35
sg75
I15
sg442
I127
sg518
I29
sg40
I364
sg699
I157
sg185
I680
sg540
I79
sg700
I87
sg188
I2445
sg701
I89
sg88
I1684
sg702
I72
sg703
I84
sg704
I130
sg706
I108
sg707
I111
sg674
I101
sg552
I21
sg192
I115
sg661
I69
sg709
I127
sg710
I118
sg383
I72
sg712
I94
sg97
I49
sg292
I159
sg713
I282
sg714
I97
sg296
I92
sg715
I88
sg103
I648
sg105
I732
sg203
I108
sg667
I88
sg718
I119
sg719
I106
sg209
I413
sg721
I158
sg305
I185
sg722
I82
sg723
I224
ssI1916
(dp729
g659
I106
sg5
I44
sg6
I389
sg660
I216
sg133
I470
sg581
I48
sg135
I57
sg662
I67
sg663
I85
sg496
I63
sg664
I75
sg136
I184
sg649
I57
sg665
I97
sg158
I475
sg666
I135
sg212
I74
sg146
I40
sg24
I387
sg504
I37
sg669
I77
sg670
I76
sg27
I397
sg421
I91
sg239
I349
sg590
I42
sg671
I76
sg672
I106
sg335
I285
sg673
I266
sg33
I60
sg337
I237
sg698
I163
sg708
I81
sg675
I77
sg676
I85
sg37
I569
sg599
I23
sg678
I72
sg249
I58
sg515
I11
sg116
I59
sg21
I5276
sg499
I70
sg679
I110
sg160
I138
sg705
I155
sg42
I57
sg681
I104
sg682
I126
sg520
I35
sg683
I109
sg522
I19
sg49
I471
sg214
I31
sg685
I110
sg51
I718
sg686
I91
sg117
I64
sg689
I2
sg690
I84
sg262
I237
sg668
I151
sg691
I230
sg692
I229
sg169
I217
sg170
I281
sg693
I140
sg694
I65
sg695
I153
sg173
I149
sg65
I50
sg696
I114
sg716
I108
sg118
I58
sg178
I783
sg717
I151
sg180
I36
sg75
I15
sg442
I134
sg518
I29
sg40
I369
sg699
I162
sg185
I704
sg540
I82
sg700
I89
sg188
I2497
sg701
I91
sg88
I1711
sg702
I73
sg703
I86
sg704
I131
sg706
I112
sg707
I112
sg674
I102
sg552
I23
sg192
I116
sg661
I70
sg709
I130
sg710
I122
sg383
I75
sg712
I95
sg97
I50
sg292
I166
sg713
I285
sg714
I99
sg296
I94
sg715
I90
sg103
I666
sg105
I741
sg203
I114
sg667
I89
sg718
I119
sg719
I110
sg209
I421
sg721
I178
sg305
I192
sg722
I84
sg723
I226
ssI1917
(dp730
g659
I107
sg5
I45
sg6
I396
sg660
I224
sg133
I479
sg581
I53
sg135
I59
sg662
I69
sg663
I87
sg496
I67
sg664
I77
sg136
I189
sg649
I58
sg665
I102
sg158
I501
sg666
I136
sg212
I75
sg146
I41
sg24
I391
sg504
I39
sg669
I79
sg670
I77
sg27
I408
sg421
I94
sg239
I357
sg590
I46
sg671
I76
sg672
I108
sg335
I293
sg673
I274
sg33
I64
sg337
I241
sg698
I166
sg708
I83
sg675
I77
sg676
I87
sg37
I575
sg599
I26
sg678
I73
sg249
I61
sg515
I11
sg116
I61
sg21
I5361
sg499
I73
sg679
I113
sg160
I145
sg705
I158
sg42
I59
sg681
I104
sg682
I130
sg520
I36
sg683
I114
sg522
I20
sg49
I479
sg214
I32
sg685
I111
sg51
I726
sg686
I92
sg117
I65
sg689
I2
sg690
I87
sg262
I242
sg668
I155
sg691
I231
sg692
I230
sg169
I223
sg170
I289
sg693
I144
sg694
I67
sg695
I167
sg173
I152
sg65
I51
sg696
I117
sg716
I110
sg118
I60
sg178
I836
sg717
I154
sg180
I37
sg75
I15
sg442
I141
sg518
I29
sg40
I374
sg699
I167
sg185
I728
sg540
I85
sg700
I91
sg188
I2549
sg701
I93
sg88
I1738
sg702
I74
sg703
I88
sg704
I132
sg706
I116
sg707
I113
sg674
I103
sg552
I25
sg192
I117
sg661
I71
sg709
I133
sg710
I126
sg383
I78
sg712
I96
sg97
I51
sg292
I173
sg713
I288
sg714
I101
sg296
I96
sg715
I92
sg103
I684
sg105
I750
sg203
I120
sg667
I90
sg718
I119
sg719
I114
sg209
I429
sg721
I198
sg305
I199
sg722
I86
sg723
I228
ssI1918
(dp731
g659
I108
sg5
I46
sg6
I403
sg660
I232
sg133
I488
sg581
I58
sg135
I61
sg662
I71
sg663
I89
sg496
I71
sg664
I79
sg136
I194
sg649
I59
sg665
I107
sg158
I527
sg666
I137
sg212
I76
sg146
I42
sg24
I395
sg504
I41
sg669
I81
sg670
I78
sg27
I419
sg421
I97
sg239
I365
sg590
I50
sg671
I76
sg672
I110
sg335
I301
sg673
I282
sg33
I68
sg337
I245
sg698
I169
sg708
I85
sg675
I77
sg676
I89
sg37
I581
sg599
I29
sg678
I74
sg249
I64
sg515
I11
sg116
I63
sg21
I5446
sg499
I76
sg679
I116
sg160
I152
sg705
I161
sg42
I61
sg681
I104
sg682
I134
sg520
I37
sg683
I119
sg522
I21
sg49
I487
sg214
I33
sg685
I112
sg51
I734
sg686
I93
sg117
I66
sg689
I2
sg690
I90
sg262
I247
sg668
I159
sg691
I232
sg692
I231
sg169
I229
sg170
I297
sg693
I148
sg694
I69
sg695
I181
sg173
I155
sg65
I52
sg696
I120
sg716
I112
sg118
I62
sg178
I889
sg717
I157
sg180
I38
sg75
I15
sg442
I148
sg518
I29
sg40
I379
sg699
I172
sg185
I752
sg540
I88
sg700
I93
sg188
I2601
sg701
I95
sg88
I1765
sg702
I75
sg703
I90
sg704
I133
sg706
I120
sg707
I114
sg674
I104
sg552
I27
sg192
I118
sg661
I72
sg709
I136
sg710
I130
sg383
I81
sg712
I97
sg97
I52
sg292
I180
sg713
I291
sg714
I103
sg296
I98
sg715
I94
sg103
I702
sg105
I759
sg203
I126
sg667
I91
sg718
I119
sg719
I118
sg209
I437
sg721
I218
sg305
I206
sg722
I88
sg723
I230
ssI1919
(dp732
g659
I109
sg5
I47
sg6
I410
sg660
I240
sg133
I497
sg581
I63
sg135
I63
sg662
I73
sg663
I91
sg496
I75
sg664
I81
sg136
I199
sg649
I60
sg665
I112
sg158
I553
sg666
I138
sg212
I77
sg146
I43
sg24
I399
sg504
I43
sg669
I83
sg670
I79
sg27
I430
sg421
I100
sg239
I373
sg590
I54
sg671
I76
sg672
I112
sg335
I309
sg673
I290
sg33
I72
sg337
I249
sg698
I172
sg708
I87
sg675
I77
sg676
I91
sg37
I587
sg599
I32
sg678
I75
sg249
I67
sg515
I11
sg116
I65
sg21
I5531
sg499
I79
sg679
I119
sg160
I159
sg705
I164
sg42
I63
sg681
I104
sg682
I138
sg520
I38
sg683
I124
sg522
I22
sg49
I495
sg214
I34
sg685
I113
sg51
I742
sg686
I94
sg117
I67
sg689
I2
sg690
I93
sg262
I252
sg668
I163
sg691
I233
sg692
I232
sg169
I235
sg170
I305
sg693
I152
sg694
I71
sg695
I195
sg173
I158
sg65
I53
sg696
I123
sg716
I114
sg118
I64
sg178
I942
sg717
I160
sg180
I39
sg75
I15
sg442
I155
sg518
I29
sg40
I384
sg699
I177
sg185
I776
sg540
I91
sg700
I95
sg188
I2653
sg701
I97
sg88
I1792
sg702
I76
sg703
I92
sg704
I134
sg706
I124
sg707
I115
sg674
I105
sg552
I29
sg192
I119
sg661
I73
sg709
I139
sg710
I134
sg383
I84
sg712
I98
sg97
I53
sg292
I187
sg713
I294
sg714
I105
sg296
I100
sg715
I96
sg103
I720
sg105
I768
sg203
I132
sg667
I92
sg718
I119
sg719
I122
sg209
I445
sg721
I238
sg305
I213
sg722
I90
sg723
I232
ssI1920
(dp733
S'Albany'
p734
I113
sg5
I43
sg6
I414
sS'Toledo'
p735
I243
sg133
I506
sg581
I72
sg135
I66
sS'Bayonne'
p736
I76
sS'Waterbury'
p737
I91
sg496
I77
sS'Fort Wayne'
p738
I86
sS'Flint'
p739
I91
sg136
I200
sg649
I60
sS'Norfolk'
p740
I115
sg499
I83
sS'Scranton'
p741
I137
sg212
I78
sg146
I46
sg24
I401
sg504
I45
sS'Savannah'
p742
I83
sS'Manchester'
p743
I78
sg27
I437
sg421
I106
sg239
I380
sg590
I56
sS'Troy'
p744
I71
sS'Camden'
p745
I116
sg335
I315
sS'Rochester'
p746
I295
sS'Allentown'
p747
I73
sS'Knoxville'
p748
I77
sg337
I256
sS'Reading'
p749
I107
sS'St. Joseph'
p750
I77
sS'Elizabeth'
p751
I95
sg37
I588
sg599
I30
sS'Peoria'
p752
I76
sg249
I74
sg515
I15
sS'Sioux City'
p753
I71
sg21
I5620
sg158
I576
sS'Salt Lake City'
p754
I118
sg160
I161
sg518
I30
sg42
I64
sS'Spokane'
p755
I104
sS'Bridgeport'
p756
I143
sS'Wilmington'
p757
I110
sg520
I40
sS'Youngstown'
p758
I132
sg522
I20
sg49
I506
sg214
I38
sS'Cambridge'
p759
I109
sg51
I748
sS'Dayton'
p760
I152
sg53
I66
sg689
I2
sS'Tacoma'
p761
I96
sg262
I258
sS'Canton'
p762
I87
sS'Richmond'
p763
I171
sS'Providence'
p764
I237
sS'Louisville'
p765
I234
sg169
I237
sg170
I314
sS'Lawrence'
p766
I94
sS'South Bend'
p767
I70
sS'Akron'
p768
I208
sg173
I162
sg65
I55
sS'New Bedford'
p769
I121
sS'Trenton'
p770
I119
sg69
I65
sg178
I993
sS'New Haven'
p771
I162
sg180
I35
sg75
I19
sg442
I158
sS'Worcester'
p772
I179
sg40
I387
sS'Birmingham'
p773
I178
sg185
I796
sg540
I91
sS'Somerville'
p774
I93
sg188
I2701
sS'Yonkers'
p775
I100
sg88
I1823
sS'Wilkes-Barre'
p776
I73
sS'Utica'
p777
I94
sS'Paterson'
p778
I135
sS'Syracuse'
p779
I171
sS'Springfield'
p780
I129
sS'Lowell'
p781
I112
sS'Evansville'
p782
I85
sg552
I29
sg192
I118
sS'Harrisburg'
p783
I75
sS'Grand Rapids'
p784
I137
sS'Hartford'
p785
I138
sg383
I91
sS'Lynn'
p786
I99
sg97
I57
sg292
I191
sS'Jersey City'
p787
I298
sS'Wichita'
p788
I72
sg296
I101
sS'Duluth'
p789
I98
sg103
I733
sg105
I772
sg203
I138
sS'Erie'
p790
I93
sS'Fall River'
p791
I120
sS'Des Moines'
p792
I126
sg209
I457
sS'Portland'
p793
I258
sg305
I216
sS'Schenectady'
p794
I88
sS'St. Paul'
p795
I234
ssI1921
(dp796
g734
I114
sg5
I45
sg6
I417
sg735
I248
sg133
I519
sg581
I79
sg135
I69
sg736
I77
sg737
I92
sg496
I80
sg738
I89
sg739
I98
sg136
I207
sg649
I61
sg740
I116
sg158
I642
sg741
I138
sg212
I79
sg146
I50
sg24
I406
sg504
I46
sS'Savannah'
p797
I83
sg27
I442
sg421
I112
sg239
I388
sg590
I65
sg745
I116
sg335
I320
sg746
I298
sg747
I75
sg748
I80
sg337
I259
sg749
I107
sg751
I97
sg37
I596
sg752
I79
sg249
I81
sg515
I16
sg116
I72
sg21
I5751
sg499
I89
sg754
I120
sg160
I168
sg518
I30
sg42
I66
sg755
I105
sg790
I95
sg756
I143
sg788
I76
sg520
I42
sg758
I136
sg522
I21
sg49
I513
sg214
I40
sg759
I109
sg51
I751
sg117
I66
sg689
I2
sg761
I97
sg262
I262
sg762
I89
sg763
I172
sg764
I239
sg765
I241
sg169
I242
sg170
I319
sg760
I157
sg767
I73
sg768
I213
sg173
I171
sg65
I57
sg769
I120
sg203
I153
sg118
I67
sg178
I1051
sg180
I37
sg75
I19
sg442
I168
sg772
I181
sg40
I394
sg773
I186
sg185
I806
sg540
I100
sg774
I94
sg188
I2769
sg775
I103
sg88
I1836
sg776
I74
sg777
I95
sS'Paterson'
p798
I135
sg779
I175
sg780
I131
sg781
I111
sg782
I87
sg552
I31
sg192
I122
sg599
I38
sg784
I140
sg785
I141
sg383
I95
sg786
I99
sg97
I63
sg292
I193
sg787
I300
sg757
I110
sg296
I103
sg789
I98
sg103
I740
sg105
I777
sg770
I119
sg771
I162
sg791
I120
sg792
I128
sg209
I469
sg793
I262
sg305
I223
sg794
I89
sg795
I238
ssI1922
(dp799
g734
I115
sg5
I47
sg6
I420
sg735
I253
sg133
I532
sg581
I86
sg135
I72
sg736
I78
sg737
I93
sg496
I83
sg738
I92
sg739
I105
sg136
I214
sg649
I62
sg740
I117
sg158
I708
sg741
I139
sg212
I80
sg146
I54
sg24
I411
sg504
I47
sg797
I83
sg27
I447
sg421
I118
sg239
I396
sg590
I74
sg745
I116
sg335
I325
sg746
I301
sg747
I77
sg748
I83
sg337
I262
sg749
I107
sg751
I99
sg37
I604
sg752
I82
sg249
I88
sg515
I17
sg116
I73
sg21
I5882
sg499
I95
sg754
I122
sg160
I175
sg518
I30
sg42
I68
sg755
I106
sg790
I97
sg756
I143
sg788
I80
sg520
I44
sg758
I140
sg522
I22
sg49
I520
sg214
I42
sg759
I109
sg51
I754
sg117
I66
sg689
I2
sg761
I98
sg262
I266
sg762
I91
sg763
I173
sg764
I241
sg765
I248
sg169
I247
sg170
I324
sg760
I162
sg767
I76
sg768
I218
sg173
I180
sg65
I59
sg769
I119
sg203
I168
sg118
I69
sg178
I1109
sg180
I39
sg75
I19
sg442
I178
sg772
I183
sg40
I401
sg773
I194
sg185
I816
sg540
I109
sg774
I95
sg188
I2837
sg775
I106
sg88
I1849
sg776
I75
sg777
I96
sg798
I135
sg779
I179
sg780
I133
sg781
I110
sg782
I89
sg552
I33
sg192
I126
sg599
I46
sg784
I143
sg785
I144
sg383
I99
sg786
I99
sg97
I69
sg292
I195
sg787
I302
sg757
I110
sg296
I105
sg789
I98
sg103
I747
sg105
I782
sg770
I119
sg771
I162
sg791
I120
sg792
I130
sg209
I481
sg793
I266
sg305
I230
sg794
I90
sg795
I242
ssI1923
(dp800
g734
I116
sg5
I49
sg6
I423
sg735
I258
sg133
I545
sg581
I93
sg135
I75
sg736
I79
sg737
I94
sg496
I86
sg738
I95
sg739
I112
sg136
I221
sg649
I63
sg740
I118
sg158
I774
sg741
I140
sg212
I81
sg146
I58
sg24
I416
sg504
I48
sg797
I83
sg27
I452
sg421
I124
sg239
I404
sg590
I83
sg745
I116
sg335
I330
sg746
I304
sg747
I79
sg748
I86
sg337
I265
sg749
I107
sg751
I101
sg37
I612
sg752
I85
sg249
I95
sg515
I18
sg116
I74
sg21
I6013
sg499
I101
sg754
I124
sg160
I182
sg518
I30
sg42
I70
sg755
I107
sg790
I99
sg756
I143
sg788
I84
sg520
I46
sg758
I144
sg522
I23
sg49
I527
sg214
I44
sg759
I109
sg51
I757
sg117
I66
sg689
I2
sg761
I99
sg262
I270
sg762
I93
sg763
I174
sg764
I243
sg765
I255
sg169
I252
sg170
I329
sg760
I167
sg767
I79
sg768
I223
sg173
I189
sg65
I61
sg769
I118
sg203
I183
sg118
I71
sg178
I1167
sg180
I41
sg75
I19
sg442
I188
sg772
I185
sg40
I408
sg773
I202
sg185
I826
sg540
I118
sg774
I96
sg188
I2905
sg775
I109
sg88
I1862
sg776
I76
sg777
I97
sg798
I135
sg779
I183
sg780
I135
sg781
I109
sg782
I91
sg552
I35
sg192
I130
sg599
I54
sg784
I146
sg785
I147
sg383
I103
sg786
I99
sg97
I75
sg292
I197
sg787
I304
sg757
I110
sg296
I107
sg789
I98
sg103
I754
sg105
I787
sg770
I119
sg771
I162
sg791
I120
sg792
I132
sg209
I493
sg793
I270
sg305
I237
sg794
I91
sg795
I246
ssI1924
(dp801
g734
I117
sg5
I51
sg6
I426
sg735
I263
sg133
I558
sg581
I100
sg135
I78
sg736
I80
sg737
I95
sg496
I89
sg738
I98
sg739
I119
sg136
I228
sg649
I64
sg740
I119
sg158
I840
sg741
I141
sg212
I82
sg146
I62
sg24
I421
sg504
I49
sg797
I83
sg27
I457
sg421
I130
sg239
I412
sg590
I92
sg745
I116
sg335
I335
sg746
I307
sg747
I81
sg748
I89
sg337
I268
sg749
I107
sg751
I103
sg37
I620
sg752
I88
sg249
I102
sg515
I19
sg116
I75
sg21
I6144
sg499
I107
sg754
I126
sg160
I189
sg518
I30
sg42
I72
sg755
I108
sg790
I101
sg756
I143
sg788
I88
sg520
I48
sg758
I148
sg522
I24
sg49
I534
sg214
I46
sg759
I109
sg51
I760
sg117
I66
sg689
I2
sg761
I100
sg262
I274
sg762
I95
sg763
I175
sg764
I245
sg765
I262
sg169
I257
sg170
I334
sg760
I172
sg767
I82
sg768
I228
sg173
I198
sg65
I63
sg769
I117
sg203
I198
sg118
I73
sg178
I1225
sg180
I43
sg75
I19
sg442
I198
sg772
I187
sg40
I415
sg773
I210
sg185
I836
sg540
I127
sg774
I97
sg188
I2973
sg775
I112
sg88
I1875
sg776
I77
sg777
I98
sg798
I135
sg779
I187
sg780
I137
sg781
I108
sg782
I93
sg552
I37
sg192
I134
sg599
I62
sg784
I149
sg785
I150
sg383
I107
sg786
I99
sg97
I81
sg292
I199
sg787
I306
sg757
I110
sg296
I109
sg789
I98
sg103
I761
sg105
I792
sg770
I119
sg771
I162
sg791
I120
sg792
I134
sg209
I505
sg793
I274
sg305
I244
sg794
I92
sg795
I250
ssI1925
(dp802
g734
I118
sg5
I53
sg6
I429
sg735
I268
sg133
I571
sg581
I107
sg135
I81
sg736
I81
sg737
I96
sg496
I92
sg738
I101
sg739
I126
sg136
I235
sg649
I65
sg740
I120
sg158
I906
sg741
I142
sg212
I83
sg146
I66
sg24
I426
sg504
I50
sg797
I83
sg27
I462
sg421
I136
sg239
I420
sg590
I101
sg745
I116
sg335
I340
sg746
I310
sg747
I83
sg748
I92
sg337
I271
sg749
I107
sg751
I105
sg37
I628
sg752
I91
sg249
I109
sg515
I20
sg116
I76
sg21
I6275
sg499
I113
sg754
I128
sg160
I196
sg518
I30
sg42
I74
sg755
I109
sg790
I103
sg756
I143
sg788
I92
sg520
I50
sg758
I152
sg522
I25
sg49
I541
sg214
I48
sg759
I109
sg51
I763
sg117
I66
sg689
I2
sg761
I101
sg262
I278
sg762
I97
sg763
I176
sg764
I247
sg765
I269
sg169
I262
sg170
I339
sg760
I177
sg767
I85
sg768
I233
sg173
I207
sg65
I65
sg769
I116
sg203
I213
sg118
I75
sg178
I1283
sg180
I45
sg75
I19
sg442
I208
sg772
I189
sg40
I422
sg773
I218
sg185
I846
sg540
I136
sg774
I98
sg188
I3041
sg775
I115
sg88
I1888
sg776
I78
sg777
I99
sg798
I135
sg779
I191
sg780
I139
sg781
I107
sg782
I95
sg552
I39
sg192
I138
sg599
I70
sg784
I152
sg785
I153
sg383
I111
sg786
I99
sg97
I87
sg292
I201
sg787
I308
sg757
I110
sg296
I111
sg789
I98
sg103
I768
sg105
I797
sg770
I119
sg771
I162
sg791
I120
sg792
I136
sg209
I517
sg793
I278
sg305
I251
sg794
I93
sg795
I254
ssI1926
(dp803
g734
I119
sg5
I55
sg6
I432
sg735
I273
sg133
I584
sg581
I114
sg135
I84
sg736
I82
sg737
I97
sg496
I95
sg738
I104
sg739
I133
sg136
I242
sg649
I66
sg740
I121
sg158
I972
sg741
I143
sg212
I84
sg146
I70
sg24
I431
sg504
I51
sg797
I83
sg27
I467
sg421
I142
sg239
I428
sg590
I110
sg745
I116
sg335
I345
sg746
I313
sg747
I85
sg748
I95
sg337
I274
sg749
I107
sg751
I107
sg37
I636
sg752
I94
sg249
I116
sg515
I21
sg116
I77
sg21
I6406
sg499
I119
sg754
I130
sg160
I203
sg518
I30
sg42
I76
sg755
I110
sg790
I105
sg756
I143
sg788
I96
sg520
I52
sg758
I156
sg522
I26
sg49
I548
sg214
I50
sg759
I109
sg51
I766
sg117
I66
sg689
I2
sg761
I102
sg262
I282
sg762
I99
sg763
I177
sg764
I249
sg765
I276
sg169
I267
sg170
I344
sg760
I182
sg767
I88
sg768
I238
sg173
I216
sg65
I67
sg769
I115
sg203
I228
sg118
I77
sg178
I1341
sg180
I47
sg75
I19
sg442
I218
sg772
I191
sg40
I429
sg773
I226
sg185
I856
sg540
I145
sg774
I99
sg188
I3109
sg775
I118
sg88
I1901
sg776
I79
sg777
I100
sg798
I135
sg779
I195
sg780
I141
sg781
I106
sg782
I97
sg552
I41
sg192
I142
sg599
I78
sg784
I155
sg785
I156
sg383
I115
sg786
I99
sg97
I93
sg292
I203
sg787
I310
sg757
I110
sg296
I113
sg789
I98
sg103
I775
sg105
I802
sg770
I119
sg771
I162
sg791
I120
sg792
I138
sg209
I529
sg793
I282
sg305
I258
sg794
I94
sg795
I258
ssI1927
(dp804
g734
I120
sg5
I57
sg6
I435
sg735
I278
sg133
I597
sg581
I121
sg135
I87
sg736
I83
sg737
I98
sg496
I98
sg738
I107
sg739
I140
sg136
I249
sg649
I67
sg740
I122
sg158
I1038
sg741
I144
sg212
I85
sg146
I74
sg24
I436
sg504
I52
sg797
I83
sg27
I472
sg421
I148
sg239
I436
sg590
I119
sg745
I116
sg335
I350
sg746
I316
sg747
I87
sg748
I98
sg337
I277
sg749
I107
sg751
I109
sg37
I644
sg752
I97
sg249
I123
sg515
I22
sg116
I78
sg21
I6537
sg499
I125
sg754
I132
sg160
I210
sg518
I30
sg42
I78
sg755
I111
sg790
I107
sg756
I143
sg788
I100
sg520
I54
sg758
I160
sg522
I27
sg49
I555
sg214
I52
sg759
I109
sg51
I769
sg117
I66
sg689
I2
sg761
I103
sg262
I286
sg762
I101
sg763
I178
sg764
I251
sg765
I283
sg169
I272
sg170
I349
sg760
I187
sg767
I91
sg768
I243
sg173
I225
sg65
I69
sg769
I114
sg203
I243
sg118
I79
sg178
I1399
sg180
I49
sg75
I19
sg442
I228
sg772
I193
sg40
I436
sg773
I234
sg185
I866
sg540
I154
sg774
I100
sg188
I3177
sg775
I121
sg88
I1914
sg776
I80
sg777
I101
sg798
I135
sg779
I199
sg780
I143
sg781
I105
sg782
I99
sg552
I43
sg192
I146
sg599
I86
sg784
I158
sg785
I159
sg383
I119
sg786
I99
sg97
I99
sg292
I205
sg787
I312
sg757
I110
sg296
I115
sg789
I98
sg103
I782
sg105
I807
sg770
I119
sg771
I162
sg791
I120
sg792
I140
sg209
I541
sg793
I286
sg305
I265
sg794
I95
sg795
I262
ssI1928
(dp805
g734
I121
sg5
I59
sg6
I438
sg735
I283
sg133
I610
sg581
I128
sg135
I90
sg736
I84
sg737
I99
sg496
I101
sg738
I110
sg739
I147
sg136
I256
sg649
I68
sg740
I123
sg158
I1104
sg741
I145
sg212
I86
sg146
I78
sg24
I441
sg504
I53
sg797
I83
sg27
I477
sg421
I154
sg239
I444
sg590
I128
sg745
I116
sg335
I355
sg746
I319
sg747
I89
sg748
I101
sg337
I280
sg749
I107
sg751
I111
sg37
I652
sg752
I100
sg249
I130
sg515
I23
sg116
I79
sg21
I6668
sg499
I131
sg754
I134
sg160
I217
sg518
I30
sg42
I80
sg755
I112
sg790
I109
sg756
I143
sg788
I104
sg520
I56
sg758
I164
sg522
I28
sg49
I562
sg214
I54
sg759
I109
sg51
I772
sg117
I66
sg689
I2
sg761
I104
sg262
I290
sg762
I103
sg763
I179
sg764
I253
sg765
I290
sg169
I277
sg170
I354
sg760
I192
sg767
I94
sg768
I248
sg173
I234
sg65
I71
sg769
I113
sg203
I258
sg118
I81
sg178
I1457
sg180
I51
sg75
I19
sg442
I238
sg772
I195
sg40
I443
sg773
I242
sg185
I876
sg540
I163
sg774
I101
sg188
I3245
sg775
I124
sg88
I1927
sg776
I81
sg777
I102
sg798
I135
sg779
I203
sg780
I145
sg781
I104
sg782
I101
sg552
I45
sg192
I150
sg599
I94
sg784
I161
sg785
I162
sg383
I123
sg786
I99
sg97
I105
sg292
I207
sg787
I314
sg757
I110
sg296
I117
sg789
I98
sg103
I789
sg105
I812
sg770
I119
sg771
I162
sg791
I120
sg792
I142
sg209
I553
sg793
I290
sg305
I272
sg794
I96
sg795
I266
ssI1929
(dp806
g734
I122
sg5
I61
sg6
I441
sg735
I288
sg133
I623
sg581
I135
sg135
I93
sg736
I85
sg737
I100
sg496
I104
sg738
I113
sg739
I154
sg136
I263
sg649
I69
sg740
I124
sg158
I1170
sg741
I146
sg212
I87
sg146
I82
sg24
I446
sg504
I54
sg797
I83
sg27
I482
sg421
I160
sg239
I452
sg590
I137
sg745
I116
sg335
I360
sg746
I322
sg747
I91
sg748
I104
sg337
I283
sg749
I107
sg751
I113
sg37
I660
sg752
I103
sg249
I137
sg515
I24
sg116
I80
sg21
I6799
sg499
I137
sg754
I136
sg160
I224
sg518
I30
sg42
I82
sg755
I113
sg790
I111
sg756
I143
sg788
I108
sg520
I58
sg758
I168
sg522
I29
sg49
I569
sg214
I56
sg759
I109
sg51
I775
sg117
I66
sg689
I2
sg761
I105
sg262
I294
sg762
I105
sg763
I180
sg764
I255
sg765
I297
sg169
I282
sg170
I359
sg760
I197
sg767
I97
sg768
I253
sg173
I243
sg65
I73
sg769
I112
sg203
I273
sg118
I83
sg178
I1515
sg180
I53
sg75
I19
sg442
I248
sg772
I197
sg40
I450
sg773
I250
sg185
I886
sg540
I172
sg774
I102
sg188
I3313
sg775
I127
sg88
I1940
sg776
I82
sg777
I103
sg798
I135
sg779
I207
sg780
I147
sg781
I103
sg782
I103
sg552
I47
sg192
I154
sg599
I102
sg784
I164
sg785
I165
sg383
I127
sg786
I99
sg97
I111
sg292
I209
sg787
I316
sg757
I110
sg296
I119
sg789
I98
sg103
I796
sg105
I817
sg770
I119
sg771
I162
sg791
I120
sg792
I144
sg209
I565
sg793
I294
sg305
I279
sg794
I97
sg795
I270
ssI1930
(dp807
S'Albany'
p808
I127
sg5
I66
sg6
I442
sS'Toledo'
p809
I290
sg133
I634
sg581
I141
sg135
I93
sS'Bayonne'
p810
I88
sS'Waterbury'
p811
I99
sg496
I102
sS'Fort Wayne'
p812
I114
sS'Flint'
p813
I156
sg136
I270
sS'Tampa'
p814
I101
sg649
I68
sS'Norfolk'
p815
I129
sg499
I138
sS'Scranton'
p816
I143
sg212
I88
sS'Tacoma'
p817
I106
sg146
I83
sg24
I451
sg504
I53
sg797
I85
sg27
I486
sg421
I163
sg239
I464
sg590
I142
sS'Salt Lake City'
p818
I140
sS'Gary'
p819
I100
sg335
I365
sS'Rochester'
p820
I328
sS'Allentown'
p821
I92
sS'Knoxville'
p822
I105
sg337
I287
sS'Reading'
p823
I111
sS'Elizabeth'
p824
I114
sg37
I669
sS'Peoria'
p825
I104
sg249
I147
sg515
I27
sg39
I79
sg21
I6930
sg158
I1238
sS'Camden'
p826
I118
sg160
I231
sg518
I33
sS'Rockford'
p827
I85
sS'Spokane'
p828
I115
sS'Bridgeport'
p829
I146
sS'Wilmington'
p830
I106
sg520
I58
sS'Youngstown'
p831
I170
sg522
I33
sg49
I573
sg214
I57
sS'Cambridge'
p832
I113
sg51
I781
sg53
I62
sg689
I5
sS'Erie'
p833
I115
sg262
I302
sS'Canton'
p834
I104
sS'Richmond'
p835
I182
sS'Providence'
p836
I252
sS'Louisville'
p837
I307
sg169
I290
sg170
I364
sS'Dayton'
p838
I200
sS'South Bend'
p839
I104
sS'Akron'
p840
I255
sg173
I253
sg65
I76
sS'New Bedford'
p841
I112
sg203
I292
sg69
I81
sg178
I1568
sg180
I53
sg75
I19
sg442
I260
sS'Worcester'
p842
I195
sg40
I458
sS'Birmingham'
p843
I259
sg185
I900
sg540
I185
sS'Somerville'
p844
I103
sg188
I3376
sS'Yonkers'
p845
I134
sg88
I1950
sS'Wilkes-Barre'
p846
I86
sS'Utica'
p847
I101
sg798
I138
sS'Syracuse'
p848
I209
sS'Springfield'
p849
I149
sS'Lowell'
p850
I100
sS'Evansville'
p851
I102
sS'Patterson'
p852
I138
sg552
I48
sg192
I153
sg599
I110
sS'Grand Rapids'
p853
I168
sS'Hartford'
p854
I164
sg383
I129
sS'Lynn'
p855
I102
sS'Chattanooga'
p856
I119
sg292
I214
sS'Jersey City'
p857
I316
sS'Wichita'
p858
I111
sg296
I121
sS'Duluth'
p859
I101
sg103
I804
sg105
I821
sS'Trenton'
p860
I123
sS'New Haven'
p861
I162
sS'Fall River'
p862
I115
sS'Des Moines'
p863
I142
sg209
I578
sS'Portland'
p864
I301
sg305
I284
sS'Schenectady'
p865
I95
sS'St. Paul'
p866
I271
ssI1931
(dp867
g808
I127
sg5
I67
sg6
I441
sg809
I289
sg133
I634
sg581
I141
sg135
I94
sg262
I302
sg811
I99
sg496
I101
sg812
I114
sg813
I156
sg136
I273
sg814
I102
sg649
I69
sg815
I131
sg158
I1265
sg599
I116
sg212
I89
sg146
I85
sg24
I451
sg504
I54
sg797
I86
sg27
I504
sg421
I164
sg239
I467
sg590
I144
sg826
I118
sg819
I101
sg335
I365
sg820
I328
sg821
I92
sg822
I106
sg337
I291
sg823
I111
sg824
I114
sg37
I669
sg825
I104
sg249
I153
sg515
I28
sg116
I79
sg21
I6982
sg499
I142
sg818
I141
sg160
I233
sg518
I33
sg42
I85
sg828
I116
sg829
I146
sg858
I111
sg520
I59
sg831
I170
sg522
I33
sg49
I573
sg214
I58
sg832
I113
sg51
I780
sg117
I62
sg689
I5
sg833
I115
sg442
I263
sg834
I104
sg835
I183
sg836
I252
sg837
I308
sg169
I292
sg170
I366
sg838
I201
sg839
I104
sg840
I254
sg173
I257
sg65
I77
sg841
I112
sg860
I123
sg118
I82
sg178
I1574
sg861
I162
sg180
I57
sg75
I22
sg842
I195
sg40
I462
sg843
I260
sg185
I898
sg540
I187
sg844
I103
sg188
I3378
sg845
I135
sg88
I1948
sg847
I101
sg798
I138
sg848
I209
sg849
I149
sg850
I100
sg851
I102
sg552
I50
sg192
I154
sg816
I143
sg853
I168
sg854
I164
sg383
I133
sg855
I102
sg856
I120
sg292
I215
sg857
I315
sg830
I107
sg296
I121
sg859
I101
sg103
I810
sg105
I821
sg203
I301
sg817
I106
sg862
I115
sg863
I144
sg209
I579
sg864
I301
sg305
I286
sg309
I94
sg866
I273
ssI1932
(dp868
g808
I127
sg5
I68
sg6
I440
sg809
I288
sg133
I634
sg581
I141
sg135
I95
sg262
I302
sg811
I99
sg496
I100
sg812
I114
sg813
I156
sg136
I276
sg814
I103
sg649
I70
sg815
I133
sg158
I1292
sg599
I122
sg212
I90
sg146
I87
sg24
I451
sg504
I55
sg797
I87
sg27
I522
sg421
I165
sg239
I470
sg590
I146
sg826
I118
sg819
I102
sg335
I365
sg820
I328
sg821
I92
sg822
I107
sg337
I295
sg823
I111
sg824
I114
sg37
I669
sg825
I104
sg249
I159
sg515
I29
sg116
I79
sg21
I7034
sg499
I146
sg818
I142
sg160
I235
sg518
I33
sg42
I85
sg828
I117
sg829
I146
sg858
I111
sg520
I60
sg831
I170
sg522
I33
sg49
I573
sg214
I59
sg832
I113
sg51
I779
sg117
I62
sg689
I5
sg833
I115
sg442
I266
sg834
I104
sg835
I184
sg836
I252
sg837
I309
sg169
I294
sg170
I368
sg838
I202
sg839
I104
sg840
I253
sg173
I261
sg65
I78
sg841
I112
sg860
I123
sg118
I83
sg178
I1580
sg861
I162
sg180
I61
sg75
I25
sg842
I195
sg40
I466
sg843
I261
sg185
I896
sg540
I189
sg844
I103
sg188
I3380
sg845
I136
sg88
I1946
sg847
I101
sg798
I138
sg848
I209
sg849
I149
sg850
I100
sg851
I102
sg552
I52
sg192
I155
sg816
I143
sg853
I168
sg854
I164
sg383
I137
sg855
I102
sg856
I121
sg292
I216
sg857
I314
sg830
I108
sg296
I121
sg859
I101
sg103
I816
sg105
I821
sg203
I310
sg817
I106
sg862
I115
sg863
I146
sg209
I580
sg864
I301
sg305
I288
sg309
I93
sg866
I275
ssI1933
(dp869
g808
I127
sg5
I69
sg6
I439
sg809
I287
sg133
I634
sg581
I141
sg135
I96
sg262
I302
sg811
I99
sg496
I99
sg812
I114
sg813
I156
sg136
I279
sg814
I104
sg649
I71
sg815
I135
sg158
I1319
sg599
I128
sg212
I91
sg146
I89
sg24
I451
sg504
I56
sg797
I88
sg27
I540
sg421
I166
sg239
I473
sg590
I148
sg826
I118
sg819
I103
sg335
I365
sg820
I328
sg821
I92
sg822
I108
sg337
I299
sg823
I111
sg824
I114
sg37
I669
sg825
I104
sg249
I165
sg515
I30
sg116
I79
sg21
I7086
sg499
I150
sg818
I143
sg160
I237
sg518
I33
sg42
I85
sg828
I118
sg829
I146
sg858
I111
sg520
I61
sg831
I170
sg522
I33
sg49
I573
sg214
I60
sg832
I113
sg51
I778
sg117
I62
sg689
I5
sg833
I115
sg442
I269
sg834
I104
sg835
I185
sg836
I252
sg837
I310
sg169
I296
sg170
I370
sg838
I203
sg839
I104
sg840
I252
sg173
I265
sg65
I79
sg841
I112
sg860
I123
sg118
I84
sg178
I1586
sg861
I162
sg180
I65
sg75
I28
sg842
I195
sg40
I470
sg843
I262
sg185
I894
sg540
I191
sg844
I103
sg188
I3382
sg845
I137
sg88
I1944
sg847
I101
sg798
I138
sg848
I209
sg849
I149
sg850
I100
sg851
I102
sg552
I54
sg192
I156
sg816
I143
sg853
I168
sg854
I164
sg383
I141
sg855
I102
sg856
I122
sg292
I217
sg857
I313
sg830
I109
sg296
I121
sg859
I101
sg103
I822
sg105
I821
sg203
I319
sg817
I106
sg862
I115
sg863
I148
sg209
I581
sg864
I301
sg305
I290
sg309
I92
sg866
I277
ssI1934
(dp870
g808
I127
sg5
I70
sg6
I438
sg809
I286
sg133
I634
sg581
I141
sg135
I97
sg262
I302
sg811
I99
sg496
I98
sg812
I114
sg813
I156
sg136
I282
sg814
I105
sg649
I72
sg815
I137
sg158
I1346
sg599
I134
sg212
I92
sg146
I91
sg24
I451
sg504
I57
sg797
I89
sg27
I558
sg421
I167
sg239
I476
sg590
I150
sg826
I118
sg819
I104
sg335
I365
sg820
I328
sg821
I92
sg822
I109
sg337
I303
sg823
I111
sg824
I114
sg37
I669
sg825
I104
sg249
I171
sg515
I31
sg116
I79
sg21
I7138
sg499
I154
sg818
I144
sg160
I239
sg518
I33
sg42
I85
sg828
I119
sg829
I146
sg858
I111
sg520
I62
sg831
I170
sg522
I33
sg49
I573
sg214
I61
sg832
I113
sg51
I777
sg117
I62
sg689
I5
sg833
I115
sg442
I272
sg834
I104
sg835
I186
sg836
I252
sg837
I311
sg169
I298
sg170
I372
sg838
I204
sg839
I104
sg840
I251
sg173
I269
sg65
I80
sg841
I112
sg860
I123
sg118
I85
sg178
I1592
sg861
I162
sg180
I69
sg75
I31
sg842
I195
sg40
I474
sg843
I263
sg185
I892
sg540
I193
sg844
I103
sg188
I3384
sg845
I138
sg88
I1942
sg847
I101
sg798
I138
sg848
I209
sg849
I149
sg850
I100
sg851
I102
sg552
I56
sg192
I157
sg816
I143
sg853
I168
sg854
I164
sg383
I145
sg855
I102
sg856
I123
sg292
I218
sg857
I312
sg830
I110
sg296
I121
sg859
I101
sg103
I828
sg105
I821
sg203
I328
sg817
I106
sg862
I115
sg863
I150
sg209
I582
sg864
I301
sg305
I292
sg309
I91
sg866
I279
ssI1935
(dp871
g808
I127
sg5
I71
sg6
I437
sg809
I285
sg133
I634
sg581
I141
sg135
I98
sg262
I302
sg811
I99
sg496
I97
sg812
I114
sg813
I156
sg136
I285
sg814
I106
sg649
I73
sg815
I139
sg158
I1373
sg599
I140
sg212
I93
sg146
I93
sg24
I451
sg504
I58
sg797
I90
sg27
I576
sg421
I168
sg239
I479
sg590
I152
sg826
I118
sg819
I105
sg335
I365
sg820
I328
sg821
I92
sg822
I110
sg337
I307
sg823
I111
sg824
I114
sg37
I669
sg825
I104
sg249
I177
sg515
I32
sg116
I79
sg21
I7190
sg499
I158
sg818
I145
sg160
I241
sg518
I33
sg42
I85
sg828
I120
sg829
I146
sg858
I111
sg520
I63
sg831
I170
sg522
I33
sg49
I573
sg214
I62
sg832
I113
sg51
I776
sg117
I62
sg689
I5
sg833
I115
sg442
I275
sg834
I104
sg835
I187
sg836
I252
sg837
I312
sg169
I300
sg170
I374
sg838
I205
sg839
I104
sg840
I250
sg173
I273
sg65
I81
sg841
I112
sg860
I123
sg118
I86
sg178
I1598
sg861
I162
sg180
I73
sg75
I34
sg842
I195
sg40
I478
sg843
I264
sg185
I890
sg540
I195
sg844
I103
sg188
I3386
sg845
I139
sg88
I1940
sg847
I101
sg798
I138
sg848
I209
sg849
I149
sg850
I100
sg851
I102
sg552
I58
sg192
I158
sg816
I143
sg853
I168
sg854
I164
sg383
I149
sg855
I102
sg856
I124
sg292
I219
sg857
I311
sg830
I111
sg296
I121
sg859
I101
sg103
I834
sg105
I821
sg203
I337
sg817
I106
sg862
I115
sg863
I152
sg209
I583
sg864
I301
sg305
I294
sg309
I90
sg866
I281
ssI1936
(dp872
g808
I127
sg5
I72
sg6
I436
sg809
I284
sg133
I634
sg581
I141
sg135
I99
sg262
I302
sg811
I99
sg496
I96
sg812
I114
sg813
I156
sg136
I288
sg814
I107
sg649
I74
sg815
I141
sg158
I1400
sg599
I146
sg212
I94
sg146
I95
sg24
I451
sg504
I59
sg797
I91
sg27
I594
sg421
I169
sg239
I482
sg590
I154
sg826
I118
sg819
I106
sg335
I365
sg820
I328
sg821
I92
sg822
I111
sg337
I311
sg823
I111
sg824
I114
sg37
I669
sg825
I104
sg249
I183
sg515
I33
sg116
I79
sg21
I7242
sg499
I162
sg818
I146
sg160
I243
sg518
I33
sg42
I85
sg828
I121
sg829
I146
sg858
I111
sg520
I64
sg831
I170
sg522
I33
sg49
I573
sg214
I63
sg832
I113
sg51
I775
sg117
I62
sg689
I5
sg833
I115
sg442
I278
sg834
I104
sg835
I188
sg836
I252
sg837
I313
sg169
I302
sg170
I376
sg838
I206
sg839
I104
sg840
I249
sg173
I277
sg65
I82
sg841
I112
sg860
I123
sg118
I87
sg178
I1604
sg861
I162
sg180
I77
sg75
I37
sg842
I195
sg40
I482
sg843
I265
sg185
I888
sg540
I197
sg844
I103
sg188
I3388
sg845
I140
sg88
I1938
sg847
I101
sg798
I138
sg848
I209
sg849
I149
sg850
I100
sg851
I102
sg552
I60
sg192
I159
sg816
I143
sg853
I168
sg854
I164
sg383
I153
sg855
I102
sg856
I125
sg292
I220
sg857
I310
sg830
I112
sg296
I121
sg859
I101
sg103
I840
sg105
I821
sg203
I346
sg817
I106
sg862
I115
sg863
I154
sg209
I584
sg864
I301
sg305
I296
sg309
I89
sg866
I283
ssI1937
(dp873
g808
I127
sg5
I73
sg6
I435
sg809
I283
sg133
I634
sg581
I141
sg135
I100
sg262
I302
sg811
I99
sg496
I95
sg812
I114
sg813
I156
sg136
I291
sg814
I108
sg649
I75
sg815
I143
sg158
I1427
sg599
I152
sg212
I95
sg146
I97
sg24
I451
sg504
I60
sg797
I92
sg27
I612
sg421
I170
sg239
I485
sg590
I156
sg826
I118
sg819
I107
sg335
I365
sg820
I328
sg821
I92
sg822
I112
sg337
I315
sg823
I111
sg824
I114
sg37
I669
sg825
I104
sg249
I189
sg515
I34
sg116
I79
sg21
I7294
sg499
I166
sg818
I147
sg160
I245
sg518
I33
sg42
I85
sg828
I122
sg829
I146
sg858
I111
sg520
I65
sg831
I170
sg522
I33
sg49
I573
sg214
I64
sg832
I113
sg51
I774
sg117
I62
sg689
I5
sg833
I115
sg442
I281
sg834
I104
sg835
I189
sg836
I252
sg837
I314
sg169
I304
sg170
I378
sg838
I207
sg839
I104
sg840
I248
sg173
I281
sg65
I83
sg841
I112
sg860
I123
sg118
I88
sg178
I1610
sg861
I162
sg180
I81
sg75
I40
sg842
I195
sg40
I486
sg843
I266
sg185
I886
sg540
I199
sg844
I103
sg188
I3390
sg845
I141
sg88
I1936
sg847
I101
sg798
I138
sg848
I209
sg849
I149
sg850
I100
sg851
I102
sg552
I62
sg192
I160
sg816
I143
sg853
I168
sg854
I164
sg383
I157
sg855
I102
sg856
I126
sg292
I221
sg857
I309
sg830
I113
sg296
I121
sg859
I101
sg103
I846
sg105
I821
sg203
I355
sg817
I106
sg862
I115
sg863
I156
sg209
I585
sg864
I301
sg305
I298
sg309
I88
sg866
I285
ssI1938
(dp874
g808
I127
sg5
I74
sg6
I434
sg809
I282
sg133
I634
sg581
I141
sg135
I101
sg262
I302
sg811
I99
sg496
I94
sg812
I114
sg813
I156
sg136
I294
sg814
I109
sg649
I76
sg815
I145
sg158
I1454
sg599
I158
sg212
I96
sg146
I99
sg24
I451
sg504
I61
sg797
I93
sg27
I630
sg421
I171
sg239
I488
sg590
I158
sg826
I118
sg819
I108
sg335
I365
sg820
I328
sg821
I92
sg822
I113
sg337
I319
sg823
I111
sg824
I114
sg37
I669
sg825
I104
sg249
I195
sg515
I35
sg116
I79
sg21
I7346
sg499
I170
sg818
I148
sg160
I247
sg518
I33
sg42
I85
sg828
I123
sg829
I146
sg858
I111
sg520
I66
sg831
I170
sg522
I33
sg49
I573
sg214
I65
sg832
I113
sg51
I773
sg117
I62
sg689
I5
sg833
I115
sg442
I284
sg834
I104
sg835
I190
sg836
I252
sg837
I315
sg169
I306
sg170
I380
sg838
I208
sg839
I104
sg840
I247
sg173
I285
sg65
I84
sg841
I112
sg860
I123
sg118
I89
sg178
I1616
sg861
I162
sg180
I85
sg75
I43
sg842
I195
sg40
I490
sg843
I267
sg185
I884
sg540
I201
sg844
I103
sg188
I3392
sg845
I142
sg88
I1934
sg847
I101
sg798
I138
sg848
I209
sg849
I149
sg850
I100
sg851
I102
sg552
I64
sg192
I161
sg816
I143
sg853
I168
sg854
I164
sg383
I161
sg855
I102
sg856
I127
sg292
I222
sg857
I308
sg830
I114
sg296
I121
sg859
I101
sg103
I852
sg105
I821
sg203
I364
sg817
I106
sg862
I115
sg863
I158
sg209
I586
sg864
I301
sg305
I300
sg309
I87
sg866
I287
ssI1939
(dp875
g808
I127
sg5
I75
sg6
I433
sg809
I281
sg133
I634
sg581
I141
sg135
I102
sg262
I302
sg811
I99
sg496
I93
sg812
I114
sg813
I156
sg136
I297
sg814
I110
sg649
I77
sg815
I147
sg158
I1481
sg599
I164
sg212
I97
sg146
I101
sg24
I451
sg504
I62
sg797
I94
sg27
I648
sg421
I172
sg239
I491
sg590
I160
sg826
I118
sg819
I109
sg335
I365
sg820
I328
sg821
I92
sg822
I114
sg337
I323
sg823
I111
sg824
I114
sg37
I669
sg825
I104
sg249
I201
sg515
I36
sg116
I79
sg21
I7398
sg499
I174
sg818
I149
sg160
I249
sg518
I33
sg42
I85
sg828
I124
sg829
I146
sg858
I111
sg520
I67
sg831
I170
sg522
I33
sg49
I573
sg214
I66
sg832
I113
sg51
I772
sg117
I62
sg689
I5
sg833
I115
sg442
I287
sg834
I104
sg835
I191
sg836
I252
sg837
I316
sg169
I308
sg170
I382
sg838
I209
sg839
I104
sg840
I246
sg173
I289
sg65
I85
sg841
I112
sg860
I123
sg118
I90
sg178
I1622
sg861
I162
sg180
I89
sg75
I46
sg842
I195
sg40
I494
sg843
I268
sg185
I882
sg540
I203
sg844
I103
sg188
I3394
sg845
I143
sg88
I1932
sg847
I101
sg798
I138
sg848
I209
sg849
I149
sg850
I100
sg851
I102
sg552
I66
sg192
I162
sg816
I143
sg853
I168
sg854
I164
sg383
I165
sg855
I102
sg856
I128
sg292
I223
sg857
I307
sg830
I115
sg296
I121
sg859
I101
sg103
I858
sg105
I821
sg203
I373
sg817
I106
sg862
I115
sg863
I160
sg209
I587
sg864
I301
sg305
I302
sg309
I86
sg866
I289
ssI1940
(dp876
S'Albany'
p877
I130
sg5
I78
sg6
I429
sS'Toledo'
p878
I282
sg133
I634
sg581
I142
sg135
I105
sg262
I305
sS'Waterbury'
p879
I99
sg496
I96
sS'Fort Wayne'
p880
I118
sS'Flint'
p881
I151
sg136
I302
sS'Tampa'
p882
I108
sg649
I78
sS'Norfolk'
p883
I144
sg499
I179
sS'Scranton'
p884
I140
sg212
I98
sg146
I100
sg24
I455
sg504
I61
sS'Savannah'
p885
I96
sg27
I663
sg421
I177
sg239
I492
sg590
I164
sS'Salt Lake City'
p886
I149
sS'Gary'
p887
I111
sg335
I368
sS'Rochester'
p888
I324
sS'Allentown'
p889
I96
sS'Knoxville'
p890
I111
sg337
I322
sS'Reading'
p891
I110
sS'Elizabeth'
p892
I109
sg37
I671
sS'Peoria'
p893
I105
sg249
I203
sg515
I35
sg39
I82
sg21
I7454
sg158
I1504
sS'Camden'
p894
I117
sg160
I253
sg518
I37
sg42
I84
sS'Spokane'
p895
I122
sS'Bridgeport'
p896
I147
sS'Wichita'
p897
I114
sg520
I68
sS'Youngstown'
p898
I167
sg522
I37
sg49
I575
sg214
I67
sS'Cambridge'
p899
I110
sg51
I770
sg53
I62
sg689
I8
sS'Erie'
p900
I116
sg442
I294
sS'Canton'
p901
I108
sS'Richmond'
p902
I193
sS'Providence'
p903
I253
sS'Louisville'
p904
I319
sg169
I306
sg170
I386
sS'Dayton'
p905
I210
sS'South Bend'
p906
I101
sS'Shreveport'
p907
I98
sS'Akron'
p908
I244
sg173
I292
sg65
I81
sS'New Bedford'
p909
I110
sS'Trenton'
p910
I124
sS'Little Rock'
p911
I88
sg178
I1623
sS'New Haven'
p912
I160
sg180
I88
sg75
I53
sS'Worcester'
p913
I193
sg40
I494
sS'Birmingham'
p914
I267
sg185
I878
sg540
I204
sS'Somerville'
p915
I102
sg188
I3396
sS'Yonkers'
p916
I142
sg88
I1931
sS'Utica'
p917
I100
sS'Paterson'
p918
I139
sS'Syracuse'
p919
I205
sS'Springfield'
p920
I149
sS'Lowell'
p921
I101
sS'Evansville'
p922
I97
sg552
I65
sg192
I167
sg599
I172
sS'Grand Rapids'
p923
I164
sS'Hartford'
p924
I166
sg383
I173
sS'Lynn'
p925
I98
sS'Chattanooga'
p926
I128
sg292
I223
sS'Jersey City'
p927
I301
sS'Wilmington'
p928
I112
sg296
I121
sS'Duluth'
p929
I101
sg103
I859
sg105
I816
sg203
I384
sS'Tacoma'
p930
I109
sS'Fall River'
p931
I115
sS'Des Moines'
p932
I159
sg209
I587
sS'Portland'
p933
I305
sg305
I302
sg309
I87
sS'St. Paul'
p934
I287
ssI1941
(dp935
g877
I130
sg5
I81
sg6
I430
sg878
I284
sg133
I648
sg581
I146
sg135
I108
sg442
I308
sg11
I100
sg496
I99
sg880
I120
sg881
I152
sg136
I305
sg882
I110
sg883
I151
sg158
I1551
sg884
I139
sg212
I99
sg930
I112
sg146
I103
sg24
I460
sg504
I64
sg885
I98
sg27
I677
sg421
I187
sg239
I495
sg590
I173
sg894
I118
sg887
I113
sg335
I378
sg888
I325
sg889
I97
sg890
I112
sg337
I331
sg891
I110
sg892
I109
sg37
I672
sg599
I180
sg893
I106
sg249
I216
sg515
I41
sg116
I82
sg21
I7498
sg499
I186
sg886
I152
sg160
I269
sg518
I38
sg42
I85
sg895
I126
sg896
I148
sg928
I112
sg520
I71
sg898
I167
sg522
I38
sg49
I576
sg214
I70
sg899
I111
sg51
I773
sg117
I62
sg689
I10
sg900
I117
sg262
I312
sg901
I109
sg902
I197
sg903
I253
sg904
I324
sg169
I313
sg170
I390
sg905
I213
sg906
I102
sg907
I101
sg908
I247
sg173
I302
sg65
I83
sg909
I110
sg203
I405
sg118
I89
sg178
I1646
sg180
I92
sg75
I55
sg913
I194
sg40
I502
sg914
I273
sg185
I882
sg540
I208
sg188
I3418
sg916
I143
sg88
I1945
sg918
I139
sg919
I207
sg920
I150
sg922
I100
sg552
I69
sg192
I168
sg649
I83
sg923
I165
sg924
I167
sg383
I176
sg926
I128
sg292
I226
sg927
I301
sg897
I119
sg296
I122
sg52
I101
sg103
I868
sg105
I820
sg910
I124
sg912
I160
sg931
I115
sg932
I161
sg209
I592
sg933
I312
sg305
I310
sg309
I87
sg934
I289
ssI1942
(dp936
g877
I130
sg5
I84
sg6
I431
sg878
I286
sg133
I662
sg581
I150
sg135
I111
sg442
I322
sg11
I101
sg496
I102
sg880
I122
sg881
I153
sg136
I308
sg882
I112
sg883
I158
sg158
I1598
sg884
I138
sg212
I100
sg930
I115
sg146
I106
sg24
I465
sg504
I67
sg885
I100
sg27
I691
sg421
I197
sg239
I498
sg590
I182
sg894
I119
sg887
I115
sg335
I388
sg888
I326
sg889
I98
sg890
I113
sg337
I340
sg891
I110
sg892
I109
sg37
I673
sg599
I188
sg893
I107
sg249
I229
sg515
I47
sg116
I82
sg21
I7542
sg499
I193
sg886
I155
sg160
I285
sg518
I39
sg42
I86
sg895
I130
sg896
I149
sg928
I112
sg520
I74
sg898
I167
sg522
I39
sg49
I577
sg214
I73
sg899
I112
sg51
I776
sg117
I62
sg689
I12
sg900
I118
sg262
I319
sg901
I110
sg902
I201
sg903
I253
sg904
I329
sg169
I320
sg170
I394
sg905
I216
sg906
I103
sg907
I104
sg908
I250
sg173
I312
sg65
I85
sg909
I110
sg203
I426
sg118
I90
sg178
I1669
sg180
I96
sg75
I57
sg913
I195
sg40
I510
sg914
I279
sg185
I886
sg540
I212
sg188
I3440
sg916
I144
sg88
I1959
sg918
I139
sg919
I209
sg920
I151
sg922
I103
sg552
I73
sg192
I169
sg649
I88
sg923
I166
sg924
I168
sg383
I179
sg926
I128
sg292
I229
sg927
I301
sg897
I124
sg296
I123
sg52
I101
sg103
I877
sg105
I824
sg910
I124
sg912
I160
sg931
I115
sg932
I163
sg209
I597
sg933
I319
sg305
I318
sg309
I87
sg934
I291
ssI1943
(dp937
g877
I130
sg5
I87
sg6
I432
sg878
I288
sg133
I676
sg581
I154
sg135
I114
sg442
I336
sg11
I102
sg496
I105
sg880
I124
sg881
I154
sg136
I311
sg882
I114
sg883
I165
sg158
I1645
sg884
I137
sg212
I101
sg930
I118
sg146
I109
sg24
I470
sg504
I70
sg885
I102
sg27
I705
sg421
I207
sg239
I501
sg590
I191
sg894
I120
sg887
I117
sg335
I398
sg888
I327
sg889
I99
sg890
I114
sg337
I349
sg891
I110
sg892
I109
sg37
I674
sg599
I196
sg893
I108
sg249
I242
sg515
I53
sg116
I82
sg21
I7586
sg499
I200
sg886
I158
sg160
I301
sg518
I40
sg42
I87
sg895
I134
sg896
I150
sg928
I112
sg520
I77
sg898
I167
sg522
I40
sg49
I578
sg214
I76
sg899
I113
sg51
I779
sg117
I62
sg689
I14
sg900
I119
sg262
I326
sg901
I111
sg902
I205
sg903
I253
sg904
I334
sg169
I327
sg170
I398
sg905
I219
sg906
I104
sg907
I107
sg908
I253
sg173
I322
sg65
I87
sg909
I110
sg203
I447
sg118
I91
sg178
I1692
sg180
I100
sg75
I59
sg913
I196
sg40
I518
sg914
I285
sg185
I890
sg540
I216
sg188
I3462
sg916
I145
sg88
I1973
sg918
I139
sg919
I211
sg920
I152
sg922
I106
sg552
I77
sg192
I170
sg649
I93
sg923
I167
sg924
I169
sg383
I182
sg926
I128
sg292
I232
sg927
I301
sg897
I129
sg296
I124
sg52
I101
sg103
I886
sg105
I828
sg910
I124
sg912
I160
sg931
I115
sg932
I165
sg209
I602
sg933
I326
sg305
I326
sg309
I87
sg934
I293
ssI1944
(dp938
g877
I130
sg5
I90
sg6
I433
sg878
I290
sg133
I690
sg581
I158
sg135
I117
sg442
I350
sg11
I103
sg496
I108
sg880
I126
sg881
I155
sg136
I314
sg882
I116
sg883
I172
sg158
I1692
sg884
I136
sg212
I102
sg930
I121
sg146
I112
sg24
I475
sg504
I73
sg885
I104
sg27
I719
sg421
I217
sg239
I504
sg590
I200
sg894
I121
sg887
I119
sg335
I408
sg888
I328
sg889
I100
sg890
I115
sg337
I358
sg891
I110
sg892
I109
sg37
I675
sg599
I204
sg893
I109
sg249
I255
sg515
I59
sg116
I82
sg21
I7630
sg499
I207
sg886
I161
sg160
I317
sg518
I41
sg42
I88
sg895
I138
sg896
I151
sg928
I112
sg520
I80
sg898
I167
sg522
I41
sg49
I579
sg214
I79
sg899
I114
sg51
I782
sg117
I62
sg689
I16
sg900
I120
sg262
I333
sg901
I112
sg902
I209
sg903
I253
sg904
I339
sg169
I334
sg170
I402
sg905
I222
sg906
I105
sg907
I110
sg908
I256
sg173
I332
sg65
I89
sg909
I110
sg203
I468
sg118
I92
sg178
I1715
sg180
I104
sg75
I61
sg913
I197
sg40
I526
sg914
I291
sg185
I894
sg540
I220
sg188
I3484
sg916
I146
sg88
I1987
sg918
I139
sg919
I213
sg920
I153
sg922
I109
sg552
I81
sg192
I171
sg649
I98
sg923
I168
sg924
I170
sg383
I185
sg926
I128
sg292
I235
sg927
I301
sg897
I134
sg296
I125
sg52
I101
sg103
I895
sg105
I832
sg910
I124
sg912
I160
sg931
I115
sg932
I167
sg209
I607
sg933
I333
sg305
I334
sg309
I87
sg934
I295
ssI1945
(dp939
g877
I130
sg5
I93
sg6
I434
sg878
I292
sg133
I704
sg581
I162
sg135
I120
sg442
I364
sg11
I104
sg496
I111
sg880
I128
sg881
I156
sg136
I317
sg882
I118
sg883
I179
sg158
I1739
sg884
I135
sg212
I103
sg930
I124
sg146
I115
sg24
I480
sg504
I76
sg885
I106
sg27
I733
sg421
I227
sg239
I507
sg590
I209
sg894
I122
sg887
I121
sg335
I418
sg888
I329
sg889
I101
sg890
I116
sg337
I367
sg891
I110
sg892
I109
sg37
I676
sg599
I212
sg893
I110
sg249
I268
sg515
I65
sg116
I82
sg21
I7674
sg499
I214
sg886
I164
sg160
I333
sg518
I42
sg42
I89
sg895
I142
sg896
I152
sg928
I112
sg520
I83
sg898
I167
sg522
I42
sg49
I580
sg214
I82
sg899
I115
sg51
I785
sg117
I62
sg689
I18
sg900
I121
sg262
I340
sg901
I113
sg902
I213
sg903
I253
sg904
I344
sg169
I341
sg170
I406
sg905
I225
sg906
I106
sg907
I113
sg908
I259
sg173
I342
sg65
I91
sg909
I110
sg203
I489
sg118
I93
sg178
I1738
sg180
I108
sg75
I63
sg913
I198
sg40
I534
sg914
I297
sg185
I898
sg540
I224
sg188
I3506
sg916
I147
sg88
I2001
sg918
I139
sg919
I215
sg920
I154
sg922
I112
sg552
I85
sg192
I172
sg649
I103
sg923
I169
sg924
I171
sg383
I188
sg926
I128
sg292
I238
sg927
I301
sg897
I139
sg296
I126
sg52
I101
sg103
I904
sg105
I836
sg910
I124
sg912
I160
sg931
I115
sg932
I169
sg209
I612
sg933
I340
sg305
I342
sg309
I87
sg934
I297
ssI1946
(dp940
g877
I130
sg5
I96
sg6
I435
sg878
I294
sg133
I718
sg581
I166
sg135
I123
sg442
I378
sg11
I105
sg496
I114
sg880
I130
sg881
I157
sg136
I320
sg882
I120
sg883
I186
sg158
I1786
sg884
I134
sg212
I104
sg930
I127
sg146
I118
sg24
I485
sg504
I79
sg885
I108
sg27
I747
sg421
I237
sg239
I510
sg590
I218
sg894
I123
sg887
I123
sg335
I428
sg888
I330
sg889
I102
sg890
I117
sg337
I376
sg891
I110
sg892
I109
sg37
I677
sg599
I220
sg893
I111
sg249
I281
sg515
I71
sg116
I82
sg21
I7718
sg499
I221
sg886
I167
sg160
I349
sg518
I43
sg42
I90
sg895
I146
sg896
I153
sg928
I112
sg520
I86
sg898
I167
sg522
I43
sg49
I581
sg214
I85
sg899
I116
sg51
I788
sg117
I62
sg689
I20
sg900
I122
sg262
I347
sg901
I114
sg902
I217
sg903
I253
sg904
I349
sg169
I348
sg170
I410
sg905
I228
sg906
I107
sg907
I116
sg908
I262
sg173
I352
sg65
I93
sg909
I110
sg203
I510
sg118
I94
sg178
I1761
sg180
I112
sg75
I65
sg913
I199
sg40
I542
sg914
I303
sg185
I902
sg540
I228
sg188
I3528
sg916
I148
sg88
I2015
sg918
I139
sg919
I217
sg920
I155
sg922
I115
sg552
I89
sg192
I173
sg649
I108
sg923
I170
sg924
I172
sg383
I191
sg926
I128
sg292
I241
sg927
I301
sg897
I144
sg296
I127
sg52
I101
sg103
I913
sg105
I840
sg910
I124
sg912
I160
sg931
I115
sg932
I171
sg209
I617
sg933
I347
sg305
I350
sg309
I87
sg934
I299
ssI1947
(dp941
g877
I130
sg5
I99
sg6
I436
sg878
I296
sg133
I732
sg581
I170
sg135
I126
sg442
I392
sg11
I106
sg496
I117
sg880
I132
sg881
I158
sg136
I323
sg882
I122
sg883
I193
sg158
I1833
sg884
I133
sg212
I105
sg930
I130
sg146
I121
sg24
I490
sg504
I82
sg885
I110
sg27
I761
sg421
I247
sg239
I513
sg590
I227
sg894
I124
sg887
I125
sg335
I438
sg888
I331
sg889
I103
sg890
I118
sg337
I385
sg891
I110
sg892
I109
sg37
I678
sg599
I228
sg893
I112
sg249
I294
sg515
I77
sg116
I82
sg21
I7762
sg499
I228
sg886
I170
sg160
I365
sg518
I44
sg42
I91
sg895
I150
sg896
I154
sg928
I112
sg520
I89
sg898
I167
sg522
I44
sg49
I582
sg214
I88
sg899
I117
sg51
I791
sg117
I62
sg689
I22
sg900
I123
sg262
I354
sg901
I115
sg902
I221
sg903
I253
sg904
I354
sg169
I355
sg170
I414
sg905
I231
sg906
I108
sg907
I119
sg908
I265
sg173
I362
sg65
I95
sg909
I110
sg203
I531
sg118
I95
sg178
I1784
sg180
I116
sg75
I67
sg913
I200
sg40
I550
sg914
I309
sg185
I906
sg540
I232
sg188
I3550
sg916
I149
sg88
I2029
sg918
I139
sg919
I219
sg920
I156
sg922
I118
sg552
I93
sg192
I174
sg649
I113
sg923
I171
sg924
I173
sg383
I194
sg926
I128
sg292
I244
sg927
I301
sg897
I149
sg296
I128
sg52
I101
sg103
I922
sg105
I844
sg910
I124
sg912
I160
sg931
I115
sg932
I173
sg209
I622
sg933
I354
sg305
I358
sg309
I87
sg934
I301
ssI1948
(dp942
g877
I130
sg5
I102
sg6
I437
sg878
I298
sg133
I746
sg581
I174
sg135
I129
sg442
I406
sg11
I107
sg496
I120
sg880
I134
sg881
I159
sg136
I326
sg882
I124
sg883
I200
sg158
I1880
sg884
I132
sg212
I106
sg930
I133
sg146
I124
sg24
I495
sg504
I85
sg885
I112
sg27
I775
sg421
I257
sg239
I516
sg590
I236
sg894
I125
sg887
I127
sg335
I448
sg888
I332
sg889
I104
sg890
I119
sg337
I394
sg891
I110
sg892
I109
sg37
I679
sg599
I236
sg893
I113
sg249
I307
sg515
I83
sg116
I82
sg21
I7806
sg499
I235
sg886
I173
sg160
I381
sg518
I45
sg42
I92
sg895
I154
sg896
I155
sg928
I112
sg520
I92
sg898
I167
sg522
I45
sg49
I583
sg214
I91
sg899
I118
sg51
I794
sg117
I62
sg689
I24
sg900
I124
sg262
I361
sg901
I116
sg902
I225
sg903
I253
sg904
I359
sg169
I362
sg170
I418
sg905
I234
sg906
I109
sg907
I122
sg908
I268
sg173
I372
sg65
I97
sg909
I110
sg203
I552
sg118
I96
sg178
I1807
sg180
I120
sg75
I69
sg913
I201
sg40
I558
sg914
I315
sg185
I910
sg540
I236
sg188
I3572
sg916
I150
sg88
I2043
sg918
I139
sg919
I221
sg920
I157
sg922
I121
sg552
I97
sg192
I175
sg649
I118
sg923
I172
sg924
I174
sg383
I197
sg926
I128
sg292
I247
sg927
I301
sg897
I154
sg296
I129
sg52
I101
sg103
I931
sg105
I848
sg910
I124
sg912
I160
sg931
I115
sg932
I175
sg209
I627
sg933
I361
sg305
I366
sg309
I87
sg934
I303
ssI1949
(dp943
g877
I130
sg5
I105
sg6
I438
sg878
I300
sg133
I760
sg581
I178
sg135
I132
sg442
I420
sg11
I108
sg496
I123
sg880
I136
sg881
I160
sg136
I329
sg882
I126
sg883
I207
sg158
I1927
sg884
I131
sg212
I107
sg930
I136
sg146
I127
sg24
I500
sg504
I88
sg885
I114
sg27
I789
sg421
I267
sg239
I519
sg590
I245
sg894
I126
sg887
I129
sg335
I458
sg888
I333
sg889
I105
sg890
I120
sg337
I403
sg891
I110
sg892
I109
sg37
I680
sg599
I244
sg893
I114
sg249
I320
sg515
I89
sg116
I82
sg21
I7850
sg499
I242
sg886
I176
sg160
I397
sg518
I46
sg42
I93
sg895
I158
sg896
I156
sg928
I112
sg520
I95
sg898
I167
sg522
I46
sg49
I584
sg214
I94
sg899
I119
sg51
I797
sg117
I62
sg689
I26
sg900
I125
sg262
I368
sg901
I117
sg902
I229
sg903
I253
sg904
I364
sg169
I369
sg170
I422
sg905
I237
sg906
I110
sg907
I125
sg908
I271
sg173
I382
sg65
I99
sg909
I110
sg203
I573
sg118
I97
sg178
I1830
sg180
I124
sg75
I71
sg913
I202
sg40
I566
sg914
I321
sg185
I914
sg540
I240
sg188
I3594
sg916
I151
sg88
I2057
sg918
I139
sg919
I223
sg920
I158
sg922
I124
sg552
I101
sg192
I176
sg649
I123
sg923
I173
sg924
I175
sg383
I200
sg926
I128
sg292
I250
sg927
I301
sg897
I159
sg296
I130
sg52
I101
sg103
I940
sg105
I852
sg910
I124
sg912
I160
sg931
I115
sg932
I177
sg209
I632
sg933
I368
sg305
I374
sg309
I87
sg934
I305
ssI1950
(dp944
S'Albany'
p945
I134
sS'Arlington'
p946
I135
sg5
I106
sg6
I438
sS'Toledo'
p947
I303
sg133
I775
sg581
I182
sg135
I137
sg442
I434
sg11
I104
sg496
I130
sS'Fort Wayne'
p948
I133
sS'Flint'
p949
I163
sS'Berkeley'
p950
I113
sg136
I331
sS'Tampa'
p951
I124
sS'Norfolk'
p952
I213
sg499
I248
sS'Scranton'
p953
I125
sg212
I100
sS'Tacoma'
p954
I143
sS'Virginia Beach'
p955
I5
sg146
I134
sg24
I503
sg504
I92
sS'Savannah'
p956
I119
sg27
I802
sg421
I278
sg239
I521
sg590
I250
sS'Salt Lake City'
p957
I182
sS'Gary'
p958
I133
sg335
I467
sS'Rochester'
p959
I332
sS'Allentown'
p960
I106
sS'Knoxville'
p961
I124
sg337
I415
sS'Evansville'
p962
I128
sS'Elizabeth'
p963
I112
sg37
I676
sg599
I249
sS'Peoria'
p964
I111
sg249
I334
sg515
I97
sg39
I83
sg21
I7891
sg158
I1970
sS'Camden'
p965
I124
sg160
I408
sg518
I45
sg42
I93
sS'Spokane'
p966
I161
sS'Bridgeport'
p967
I158
sS'Wilmington'
p968
I110
sg520
I96
sS'Youngstown'
p969
I168
sg522
I45
sg49
I580
sg214
I96
sS'Cambridge'
p970
I120
sg51
I801
sg53
I64
sg689
I25
sS'Erie'
p971
I130
sg262
I374
sS'Canton'
p972
I116
sS'Richmond'
p973
I230
sS'Providence'
p974
I248
sS'Louisville'
p975
I369
sg169
I375
sg170
I427
sS'Dayton'
p976
I243
sS'South Bend'
p977
I115
sS'Baton Rouge'
p978
I125
sS'Shreveport'
p979
I127
sS'Akron'
p980
I274
sg173
I396
sg65
I98
sS'New Bedford'
p981
I109
sS'Trenton'
p982
I128
sg69
I102
sg178
I1849
sg180
I132
sg75
I74
sS'Worcester'
p983
I203
sg40
I570
sS'Birmingham'
p984
I326
sg185
I914
sg540
I243
sg188
I3620
sS'Yonkers'
p985
I152
sg88
I2071
sS'Paterson'
p986
I139
sS'Syracuse'
p987
I220
sS'Springfield'
p988
I162
sS'Reading'
p989
I109
sg552
I106
sg192
I174
sS'Mobile'
p990
I129
sS'Grand Rapids'
p991
I176
sS'Hartford'
p992
I177
sg383
I204
sS'Chattanooga'
p993
I131
sg292
I251
sS'Jersey City'
p994
I299
sS'Wichita'
p995
I168
sg296
I129
sg52
I104
sS'Corpus Christi'
p996
I108
sg103
I949
sg105
I856
sg203
I596
sS'New Haven'
p997
I164
sS'Fall River'
p998
I111
sS'Des Moines'
p999
I177
sg209
I637
sS'Portland'
p1000
I373
sg305
I384
sg309
I91
sS'St. Paul'
p1001
I311
ssI1951
(dp1002
g945
I134
sg946
I138
sg5
I109
sg6
I435
sg947
I305
sg133
I772
sg581
I190
sg135
I142
sg262
I374
sg11
I104
sg496
I145
sg948
I136
sg949
I166
sg136
I347
sg951
I139
sg952
I222
sg158
I2021
sg990
I136
sg212
I103
sg955
I5
sg146
I141
sg24
I503
sg504
I96
sg956
I122
sg27
I798
sg421
I286
sg239
I517
sg590
I259
sg957
I183
sg958
I138
sg987
I220
sg959
I331
sg33
I123
sg337
I423
sg962
I129
sg37
I669
sg249
I358
sg515
I107
sg116
I84
sg21
I7880
sg499
I253
sg160
I426
sg518
I48
sg42
I96
sg966
I163
sg967
I158
sg520
I107
sg969
I168
sg522
I62
sg49
I575
sg214
I99
sg335
I476
sg51
I791
sg117
I65
sg689
I29
sg971
I131
sg442
I459
sg973
I229
sg974
I244
sg975
I371
sg169
I385
sg170
I432
sg976
I245
sg977
I117
sg978
I128
sg979
I131
sg980
I276
sg173
I406
sg65
I101
sg118
I103
sg178
I1831
sg997
I163
sg180
I137
sg75
I79
sg983
I201
sg40
I576
sg984
I327
sg185
I910
sg540
I251
sg188
I3613
sg985
I156
sg88
I2064
sg986
I139
sg988
I163
sg552
I139
sg192
I174
sg599
I253
sg991
I176
sg992
I176
sg383
I204
sg993
I131
sg292
I256
sg994
I297
sg995
I177
sg296
I128
sg52
I104
sg1000
I373
sg103
I948
sg105
I845
sg203
I630
sg954
I143
sg999
I180
sg209
I647
sg996
I114
sg305
I382
sg309
I90
sg1001
I311
ssI1952
(dp1003
g945
I134
sg946
I141
sg5
I112
sg6
I432
sg947
I307
sg133
I769
sg581
I198
sg135
I147
sg262
I374
sg11
I104
sg496
I160
sg948
I139
sg949
I169
sg136
I363
sg951
I154
sg952
I231
sg158
I2072
sg990
I143
sg212
I106
sg955
I5
sg146
I148
sg24
I503
sg504
I100
sg956
I125
sg27
I794
sg421
I294
sg239
I513
sg590
I268
sg957
I184
sg958
I143
sg987
I220
sg959
I330
sg33
I122
sg337
I431
sg962
I130
sg37
I662
sg249
I382
sg515
I117
sg116
I85
sg21
I7869
sg499
I258
sg160
I444
sg518
I51
sg42
I99
sg966
I165
sg967
I158
sg520
I118
sg969
I168
sg522
I79
sg49
I570
sg214
I102
sg335
I485
sg51
I781
sg117
I66
sg689
I33
sg971
I132
sg442
I484
sg973
I228
sg974
I240
sg975
I373
sg169
I395
sg170
I437
sg976
I247
sg977
I119
sg978
I131
sg979
I135
sg980
I278
sg173
I416
sg65
I104
sg118
I104
sg178
I1813
sg997
I162
sg180
I142
sg75
I84
sg983
I199
sg40
I582
sg984
I328
sg185
I906
sg540
I259
sg188
I3606
sg985
I160
sg88
I2057
sg986
I139
sg988
I164
sg552
I172
sg192
I174
sg599
I257
sg991
I176
sg992
I175
sg383
I204
sg993
I131
sg292
I261
sg994
I295
sg995
I186
sg296
I127
sg52
I104
sg1000
I373
sg103
I947
sg105
I834
sg203
I664
sg954
I143
sg999
I183
sg209
I657
sg996
I120
sg305
I380
sg309
I89
sg1001
I311
ssI1953
(dp1004
g945
I134
sg946
I144
sg5
I115
sg6
I429
sg947
I309
sg133
I766
sg581
I206
sg135
I152
sg262
I374
sg11
I104
sg496
I175
sg948
I142
sg949
I172
sg136
I379
sg951
I169
sg952
I240
sg158
I2123
sg990
I150
sg212
I109
sg955
I5
sg146
I155
sg24
I503
sg504
I104
sg956
I128
sg27
I790
sg421
I302
sg239
I509
sg590
I277
sg957
I185
sg958
I148
sg987
I220
sg959
I329
sg33
I121
sg337
I439
sg962
I131
sg37
I655
sg249
I406
sg515
I127
sg116
I86
sg21
I7858
sg499
I263
sg160
I462
sg518
I54
sg42
I102
sg966
I167
sg967
I158
sg520
I129
sg969
I168
sg522
I96
sg49
I565
sg214
I105
sg335
I494
sg51
I771
sg117
I67
sg689
I37
sg971
I133
sg442
I509
sg973
I227
sg974
I236
sg975
I375
sg169
I405
sg170
I442
sg976
I249
sg977
I121
sg978
I134
sg979
I139
sg980
I280
sg173
I426
sg65
I107
sg118
I105
sg178
I1795
sg997
I161
sg180
I147
sg75
I89
sg983
I197
sg40
I588
sg984
I329
sg185
I902
sg540
I267
sg188
I3599
sg985
I164
sg88
I2050
sg986
I139
sg988
I165
sg552
I205
sg192
I174
sg599
I261
sg991
I176
sg992
I174
sg383
I204
sg993
I131
sg292
I266
sg994
I293
sg995
I195
sg296
I126
sg52
I104
sg1000
I373
sg103
I946
sg105
I823
sg203
I698
sg954
I143
sg999
I186
sg209
I667
sg996
I126
sg305
I378
sg309
I88
sg1001
I311
ssI1954
(dp1005
g945
I134
sg946
I147
sg5
I118
sg6
I426
sg947
I311
sg133
I763
sg581
I214
sg135
I157
sg262
I374
sg11
I104
sg496
I190
sg948
I145
sg949
I175
sg136
I395
sg951
I184
sg952
I249
sg158
I2174
sg990
I157
sg212
I112
sg955
I5
sg146
I162
sg24
I503
sg504
I108
sg956
I131
sg27
I786
sg421
I310
sg239
I505
sg590
I286
sg957
I186
sg958
I153
sg987
I220
sg959
I328
sg33
I120
sg337
I447
sg962
I132
sg37
I648
sg249
I430
sg515
I137
sg116
I87
sg21
I7847
sg499
I268
sg160
I480
sg518
I57
sg42
I105
sg966
I169
sg967
I158
sg520
I140
sg969
I168
sg522
I113
sg49
I560
sg214
I108
sg335
I503
sg51
I761
sg117
I68
sg689
I41
sg971
I134
sg442
I534
sg973
I226
sg974
I232
sg975
I377
sg169
I415
sg170
I447
sg976
I251
sg977
I123
sg978
I137
sg979
I143
sg980
I282
sg173
I436
sg65
I110
sg118
I106
sg178
I1777
sg997
I160
sg180
I152
sg75
I94
sg983
I195
sg40
I594
sg984
I330
sg185
I898
sg540
I275
sg188
I3592
sg985
I168
sg88
I2043
sg986
I139
sg988
I166
sg552
I238
sg192
I174
sg599
I265
sg991
I176
sg992
I173
sg383
I204
sg993
I131
sg292
I271
sg994
I291
sg995
I204
sg296
I125
sg52
I104
sg1000
I373
sg103
I945
sg105
I812
sg203
I732
sg954
I143
sg999
I189
sg209
I677
sg996
I132
sg305
I376
sg309
I87
sg1001
I311
ssI1955
(dp1006
g945
I134
sg946
I150
sg5
I121
sg6
I423
sg947
I313
sg133
I760
sg581
I222
sg135
I162
sg262
I374
sg11
I104
sg496
I205
sg948
I148
sg949
I178
sg136
I411
sg951
I199
sg952
I258
sg158
I2225
sg990
I164
sg212
I115
sg955
I5
sg146
I169
sg24
I503
sg504
I112
sg956
I134
sg27
I782
sg421
I318
sg239
I501
sg590
I295
sg957
I187
sg958
I158
sg987
I220
sg959
I327
sg33
I119
sg337
I455
sg962
I133
sg37
I641
sg249
I454
sg515
I147
sg116
I88
sg21
I7836
sg499
I273
sg160
I498
sg518
I60
sg42
I108
sg966
I171
sg967
I158
sg520
I151
sg969
I168
sg522
I130
sg49
I555
sg214
I111
sg335
I512
sg51
I751
sg117
I69
sg689
I45
sg971
I135
sg442
I559
sg973
I225
sg974
I228
sg975
I379
sg169
I425
sg170
I452
sg976
I253
sg977
I125
sg978
I140
sg979
I147
sg980
I284
sg173
I446
sg65
I113
sg118
I107
sg178
I1759
sg997
I159
sg180
I157
sg75
I99
sg983
I193
sg40
I600
sg984
I331
sg185
I894
sg540
I283
sg188
I3585
sg985
I172
sg88
I2036
sg986
I139
sg988
I167
sg552
I271
sg192
I174
sg599
I269
sg991
I176
sg992
I172
sg383
I204
sg993
I131
sg292
I276
sg994
I289
sg995
I213
sg296
I124
sg52
I104
sg1000
I373
sg103
I944
sg105
I801
sg203
I766
sg954
I143
sg999
I192
sg209
I687
sg996
I138
sg305
I374
sg309
I86
sg1001
I311
ssI1956
(dp1007
g945
I134
sg946
I153
sg5
I124
sg6
I420
sg947
I315
sg133
I757
sg581
I230
sg135
I167
sg262
I374
sg11
I104
sg496
I220
sg948
I151
sg949
I181
sg136
I427
sg951
I214
sg952
I267
sg158
I2276
sg990
I171
sg212
I118
sg955
I5
sg146
I176
sg24
I503
sg504
I116
sg956
I137
sg27
I778
sg421
I326
sg239
I497
sg590
I304
sg957
I188
sg958
I163
sg987
I220
sg959
I326
sg33
I118
sg337
I463
sg962
I134
sg37
I634
sg249
I478
sg515
I157
sg116
I89
sg21
I7825
sg499
I278
sg160
I516
sg518
I63
sg42
I111
sg966
I173
sg967
I158
sg520
I162
sg969
I168
sg522
I147
sg49
I550
sg214
I114
sg335
I521
sg51
I741
sg117
I70
sg689
I49
sg971
I136
sg442
I584
sg973
I224
sg974
I224
sg975
I381
sg169
I435
sg170
I457
sg976
I255
sg977
I127
sg978
I143
sg979
I151
sg980
I286
sg173
I456
sg65
I116
sg118
I108
sg178
I1741
sg997
I158
sg180
I162
sg75
I104
sg983
I191
sg40
I606
sg984
I332
sg185
I890
sg540
I291
sg188
I3578
sg985
I176
sg88
I2029
sg986
I139
sg988
I168
sg552
I304
sg192
I174
sg599
I273
sg991
I176
sg992
I171
sg383
I204
sg993
I131
sg292
I281
sg994
I287
sg995
I222
sg296
I123
sg52
I104
sg1000
I373
sg103
I943
sg105
I790
sg203
I800
sg954
I143
sg999
I195
sg209
I697
sg996
I144
sg305
I372
sg309
I85
sg1001
I311
ssI1957
(dp1008
g945
I134
sg946
I156
sg5
I127
sg6
I417
sg947
I317
sg133
I754
sg581
I238
sg135
I172
sg262
I374
sg11
I104
sg496
I235
sg948
I154
sg949
I184
sg136
I443
sg951
I229
sg952
I276
sg158
I2327
sg990
I178
sg212
I121
sg955
I5
sg146
I183
sg24
I503
sg504
I120
sg956
I140
sg27
I774
sg421
I334
sg239
I493
sg590
I313
sg957
I189
sg958
I168
sg987
I220
sg959
I325
sg33
I117
sg337
I471
sg962
I135
sg37
I627
sg249
I502
sg515
I167
sg116
I90
sg21
I7814
sg499
I283
sg160
I534
sg518
I66
sg42
I114
sg966
I175
sg967
I158
sg520
I173
sg969
I168
sg522
I164
sg49
I545
sg214
I117
sg335
I530
sg51
I731
sg117
I71
sg689
I53
sg971
I137
sg442
I609
sg973
I223
sg974
I220
sg975
I383
sg169
I445
sg170
I462
sg976
I257
sg977
I129
sg978
I146
sg979
I155
sg980
I288
sg173
I466
sg65
I119
sg118
I109
sg178
I1723
sg997
I157
sg180
I167
sg75
I109
sg983
I189
sg40
I612
sg984
I333
sg185
I886
sg540
I299
sg188
I3571
sg985
I180
sg88
I2022
sg986
I139
sg988
I169
sg552
I337
sg192
I174
sg599
I277
sg991
I176
sg992
I170
sg383
I204
sg993
I131
sg292
I286
sg994
I285
sg995
I231
sg296
I122
sg52
I104
sg1000
I373
sg103
I942
sg105
I779
sg203
I834
sg954
I143
sg999
I198
sg209
I707
sg996
I150
sg305
I370
sg309
I84
sg1001
I311
ssI1958
(dp1009
g945
I134
sg946
I159
sg5
I130
sg6
I414
sg947
I319
sg133
I751
sg581
I246
sg135
I177
sg262
I374
sg11
I104
sg496
I250
sg948
I157
sg949
I187
sg136
I459
sg951
I244
sg952
I285
sg158
I2378
sg990
I185
sg212
I124
sg955
I5
sg146
I190
sg24
I503
sg504
I124
sg956
I143
sg27
I770
sg421
I342
sg239
I489
sg590
I322
sg957
I190
sg958
I173
sg987
I220
sg959
I324
sg33
I116
sg337
I479
sg962
I136
sg37
I620
sg249
I526
sg515
I177
sg116
I91
sg21
I7803
sg499
I288
sg160
I552
sg518
I69
sg42
I117
sg966
I177
sg967
I158
sg520
I184
sg969
I168
sg522
I181
sg49
I540
sg214
I120
sg335
I539
sg51
I721
sg117
I72
sg689
I57
sg971
I138
sg442
I634
sg973
I222
sg974
I216
sg975
I385
sg169
I455
sg170
I467
sg976
I259
sg977
I131
sg978
I149
sg979
I159
sg980
I290
sg173
I476
sg65
I122
sg118
I110
sg178
I1705
sg997
I156
sg180
I172
sg75
I114
sg983
I187
sg40
I618
sg984
I334
sg185
I882
sg540
I307
sg188
I3564
sg985
I184
sg88
I2015
sg986
I139
sg988
I170
sg552
I370
sg192
I174
sg599
I281
sg991
I176
sg992
I169
sg383
I204
sg993
I131
sg292
I291
sg994
I283
sg995
I240
sg296
I121
sg52
I104
sg1000
I373
sg103
I941
sg105
I768
sg203
I868
sg954
I143
sg999
I201
sg209
I717
sg996
I156
sg305
I368
sg309
I83
sg1001
I311
ssI1959
(dp1010
g945
I134
sg946
I162
sg5
I133
sg6
I411
sg947
I321
sg133
I748
sg581
I254
sg135
I182
sg262
I374
sg11
I104
sg496
I265
sg948
I160
sg949
I190
sg136
I475
sg951
I259
sg952
I294
sg158
I2429
sg990
I192
sg212
I127
sg955
I5
sg146
I197
sg24
I503
sg504
I128
sg956
I146
sg27
I766
sg421
I350
sg239
I485
sg590
I331
sg957
I191
sg958
I178
sg987
I220
sg959
I323
sg33
I115
sg337
I487
sg962
I137
sg37
I613
sg249
I550
sg515
I187
sg116
I92
sg21
I7792
sg499
I293
sg160
I570
sg518
I72
sg42
I120
sg966
I179
sg967
I158
sg520
I195
sg969
I168
sg522
I198
sg49
I535
sg214
I123
sg335
I548
sg51
I711
sg117
I73
sg689
I61
sg971
I139
sg442
I659
sg973
I221
sg974
I212
sg975
I387
sg169
I465
sg170
I472
sg976
I261
sg977
I133
sg978
I152
sg979
I163
sg980
I292
sg173
I486
sg65
I125
sg118
I111
sg178
I1687
sg997
I155
sg180
I177
sg75
I119
sg983
I185
sg40
I624
sg984
I335
sg185
I878
sg540
I315
sg188
I3557
sg985
I188
sg88
I2008
sg986
I139
sg988
I171
sg552
I403
sg192
I174
sg599
I285
sg991
I176
sg992
I168
sg383
I204
sg993
I131
sg292
I296
sg994
I281
sg995
I249
sg296
I120
sg52
I104
sg1000
I373
sg103
I940
sg105
I757
sg203
I902
sg954
I143
sg999
I204
sg209
I727
sg996
I162
sg305
I366
sg309
I82
sg1001
I311
ssI1960
(dp1011
S'Albany'
p1012
I129
sS'Arlington'
p1013
I163
sS'Montgomery'
p1014
I134
sg6
I405
sS'Toledo'
p1015
I318
sg133
I740
sg581
I261
sg135
I191
sg262
I373
sg11
I107
sg496
I276
sS'Fort Wayne'
p1016
I161
sS'Flint'
p1017
I196
sg136
I487
sS'Tampa'
p1018
I274
sS'Norfolk'
p1019
I305
sg499
I294
sg599
I291
sg212
I130
sg955
I8
sg146
I201
sg24
I502
sg504
I133
sS'Savannah'
p1020
I147
sg27
I763
sg421
I356
sg239
I482
sg590
I344
sS'Salt Lake City'
p1021
I189
sS'Gary'
p1022
I178
sg335
I557
sS'Rochester'
p1023
I318
sg33
I111
sg337
I493
sS'Worcester'
p1024
I186
sS'Evansville'
p1025
I141
sg37
I604
sg249
I573
sg515
I201
sg39
I89
sg21
I7781
sg158
I2479
sg160
I587
sS'Syracuse'
p1026
I216
sS'Rockford'
p1027
I126
sS'Spokane'
p1028
I181
sS'Bridgeport'
p1029
I156
sg520
I204
sS'Youngstown'
p1030
I166
sg522
I212
sg49
I532
sS'Madison'
p1031
I126
sg51
I697
sg53
I71
sg689
I64
sS'Tacoma'
p1032
I147
sg442
I679
sS'St. Petersburg'
p1033
I181
sS'Richmond'
p1034
I219
sS'Providence'
p1035
I207
sS'Louisville'
p1036
I390
sS'Jackson'
p1037
I144
sg169
I471
sg170
I476
sS'Dayton'
p1038
I262
sS'South Bend'
p1039
I132
sS'Baton Rouge'
p1040
I152
sS'Shreveport'
p1041
I164
sS'Akron'
p1042
I290
sg173
I497
sS'Lincoln'
p1043
I128
sg69
I107
sg178
I1670
sS'New Haven'
p1044
I152
sg180
I186
sS'Greensboro'
p1045
I119
sg518
I70
sg40
I627
sS'Birmingham'
p1046
I340
sg185
I876
sg540
I324
sg188
I3550
sS'Yonkers'
p1047
I190
sS'Lubbock'
p1048
I128
sg88
I2002
sS'Paterson'
p1049
I143
sS'Springfield'
p1050
I174
sg552
I439
sg192
I170
sS'Amarillo'
p1051
I137
sS'Mobile'
p1052
I202
sS'Grand Rapids'
p1053
I177
sS'Hartford'
p1054
I162
sg383
I201
sS'Chattanooga'
p1055
I130
sg292
I301
sS'Jersey City'
p1056
I276
sS'Wichita'
p1057
I254
sg296
I121
sg52
I107
sS'Corpus Christi'
p1058
I167
sg103
I939
sg105
I750
sg203
I938
sS'Erie'
p1059
I138
sS'Des Moines'
p1060
I208
sg209
I741
sS'Portland'
p1061
I372
sg305
I367
sg309
I81
sS'St. Paul'
p1062
I313
ssI1961
(dp1063
g1013
I164
sg5
I134
sg6
I403
sg1015
I325
sg133
I738
sg581
I268
sg135
I197
sg442
I696
sg11
I107
sg496
I281
sg1016
I163
sg1017
I196
sg136
I488
sg1018
I274
sg1019
I305
sg158
I2513
sg1052
I201
sg212
I133
sg955
I24
sg146
I205
sg24
I497
sg504
I136
sg797
I144
sg27
I762
sg421
I360
sg239
I477
sg590
I345
sg1021
I188
sg1022
I178
sg1026
I214
sg1023
I316
sg33
I117
sg337
I495
sg1025
I141
sg37
I596
sg249
I585
sg515
I205
sg116
I89
sg21
I7792
sg499
I297
sg160
I594
sg518
I77
sg1027
I128
sg1028
I180
sg1029
I156
sg520
I228
sg1030
I163
sg522
I217
sg49
I525
sg1031
I131
sg335
I554
sg51
I691
sg117
I71
sg689
I70
sg1032
I148
sg262
I374
sg1033
I185
sg1034
I222
sg1035
I204
sg1036
I387
sg1037
I145
sg169
I439
sg170
I503
sg1038
I260
sg1040
I153
sg1041
I166
sg1042
I289
sg173
I510
sg1043
I130
sg118
I110
sg178
I1654
sg180
I193
sg1045
I122
sg1024
I185
sg40
I624
sg1046
I336
sg185
I863
sg540
I328
sg188
I3532
sg1047
I191
sg1048
I130
sg88
I1997
sg1049
I143
sg1050
I173
sg552
I453
sg192
I198
sg599
I295
sg1053
I179
sg1054
I162
sg383
I234
sg97
I129
sg292
I306
sg1056
I274
sg1057
I256
sg296
I126
sg52
I106
sg1061
I373
sg103
I936
sg105
I737
sg203
I967
sg1060
I207
sg209
I739
sg1058
I171
sg305
I366
sg309
I81
sg1062
I313
ssI1962
(dp1064
g1013
I165
sg5
I134
sg6
I401
sg1015
I332
sg133
I736
sg581
I275
sg135
I203
sg442
I713
sg11
I107
sg496
I286
sg1016
I165
sg1017
I196
sg136
I489
sg1018
I274
sg1019
I305
sg158
I2547
sg1052
I200
sg212
I136
sg955
I40
sg146
I209
sg24
I492
sg504
I139
sg797
I141
sg27
I761
sg421
I364
sg239
I472
sg590
I346
sg1021
I187
sg1022
I178
sg1026
I212
sg1023
I314
sg33
I123
sg337
I497
sg1025
I141
sg37
I588
sg249
I597
sg515
I209
sg116
I89
sg21
I7803
sg499
I300
sg160
I601
sg518
I84
sg1027
I130
sg1028
I179
sg1029
I156
sg520
I252
sg1030
I160
sg522
I222
sg49
I518
sg1031
I136
sg335
I551
sg51
I685
sg117
I71
sg689
I76
sg1032
I149
sg262
I375
sg1033
I189
sg1034
I225
sg1035
I201
sg1036
I384
sg1037
I146
sg169
I407
sg170
I530
sg1038
I258
sg1040
I154
sg1041
I168
sg1042
I288
sg173
I523
sg1043
I132
sg118
I113
sg178
I1638
sg180
I200
sg1045
I125
sg1024
I184
sg40
I621
sg1046
I332
sg185
I850
sg540
I332
sg188
I3514
sg1047
I192
sg1048
I132
sg88
I1992
sg1049
I143
sg1050
I172
sg552
I467
sg192
I226
sg599
I299
sg1053
I181
sg1054
I162
sg383
I267
sg97
I128
sg292
I311
sg1056
I272
sg1057
I258
sg296
I131
sg52
I105
sg1061
I374
sg103
I933
sg105
I724
sg203
I996
sg1060
I206
sg209
I737
sg1058
I175
sg305
I365
sg309
I81
sg1062
I313
ssI1963
(dp1065
g1013
I166
sg5
I134
sg6
I399
sg1015
I339
sg133
I734
sg581
I282
sg135
I209
sg442
I730
sg11
I107
sg496
I291
sg1016
I167
sg1017
I196
sg136
I490
sg1018
I274
sg1019
I305
sg158
I2581
sg1052
I199
sg212
I139
sg955
I56
sg146
I213
sg24
I487
sg504
I142
sg797
I138
sg27
I760
sg421
I368
sg239
I467
sg590
I347
sg1021
I186
sg1022
I178
sg1026
I210
sg1023
I312
sg33
I129
sg337
I499
sg1025
I141
sg37
I580
sg249
I609
sg515
I213
sg116
I89
sg21
I7814
sg499
I303
sg160
I608
sg518
I91
sg1027
I132
sg1028
I178
sg1029
I156
sg520
I276
sg1030
I157
sg522
I227
sg49
I511
sg1031
I141
sg335
I548
sg51
I679
sg117
I71
sg689
I82
sg1032
I150
sg262
I376
sg1033
I193
sg1034
I228
sg1035
I198
sg1036
I381
sg1037
I147
sg169
I375
sg170
I557
sg1038
I256
sg1040
I155
sg1041
I170
sg1042
I287
sg173
I536
sg1043
I134
sg118
I116
sg178
I1622
sg180
I207
sg1045
I128
sg1024
I183
sg40
I618
sg1046
I328
sg185
I837
sg540
I336
sg188
I3496
sg1047
I193
sg1048
I134
sg88
I1987
sg1049
I143
sg1050
I171
sg552
I481
sg192
I254
sg599
I303
sg1053
I183
sg1054
I162
sg383
I300
sg97
I127
sg292
I316
sg1056
I270
sg1057
I260
sg296
I136
sg52
I104
sg1061
I375
sg103
I930
sg105
I711
sg203
I1025
sg1060
I205
sg209
I735
sg1058
I179
sg305
I364
sg309
I81
sg1062
I313
ssI1964
(dp1066
g1013
I167
sg5
I134
sg6
I397
sg1015
I346
sg133
I732
sg581
I289
sg135
I215
sg442
I747
sg11
I107
sg496
I296
sg1016
I169
sg1017
I196
sg136
I491
sg1018
I274
sg1019
I305
sg158
I2615
sg1052
I198
sg212
I142
sg955
I72
sg146
I217
sg24
I482
sg504
I145
sg797
I135
sg27
I759
sg421
I372
sg239
I462
sg590
I348
sg1021
I185
sg1022
I178
sg1026
I208
sg1023
I310
sg33
I135
sg337
I501
sg1025
I141
sg37
I572
sg249
I621
sg515
I217
sg116
I89
sg21
I7825
sg499
I306
sg160
I615
sg518
I98
sg1027
I134
sg1028
I177
sg1029
I156
sg520
I300
sg1030
I154
sg522
I232
sg49
I504
sg1031
I146
sg335
I545
sg51
I673
sg117
I71
sg689
I88
sg1032
I151
sg262
I377
sg1033
I197
sg1034
I231
sg1035
I195
sg1036
I378
sg1037
I148
sg169
I343
sg170
I584
sg1038
I254
sg1040
I156
sg1041
I172
sg1042
I286
sg173
I549
sg1043
I136
sg118
I119
sg178
I1606
sg180
I214
sg1045
I131
sg1024
I182
sg40
I615
sg1046
I324
sg185
I824
sg540
I340
sg188
I3478
sg1047
I194
sg1048
I136
sg88
I1982
sg1049
I143
sg1050
I170
sg552
I495
sg192
I282
sg599
I307
sg1053
I185
sg1054
I162
sg383
I333
sg97
I126
sg292
I321
sg1056
I268
sg1057
I262
sg296
I141
sg52
I103
sg1061
I376
sg103
I927
sg105
I698
sg203
I1054
sg1060
I204
sg209
I733
sg1058
I183
sg305
I363
sg309
I81
sg1062
I313
ssI1965
(dp1067
g1013
I168
sg5
I134
sg6
I395
sg1015
I353
sg133
I730
sg581
I296
sg135
I221
sg442
I764
sg11
I107
sg496
I301
sg1016
I171
sg1017
I196
sg136
I492
sg1018
I274
sg1019
I305
sg158
I2649
sg1052
I197
sg212
I145
sg955
I88
sg146
I221
sg24
I477
sg504
I148
sg797
I132
sg27
I758
sg421
I376
sg239
I457
sg590
I349
sg1021
I184
sg1022
I178
sg1026
I206
sg1023
I308
sg33
I141
sg337
I503
sg1025
I141
sg37
I564
sg249
I633
sg515
I221
sg116
I89
sg21
I7836
sg499
I309
sg160
I622
sg518
I105
sg1027
I136
sg1028
I176
sg1029
I156
sg520
I324
sg1030
I151
sg522
I237
sg49
I497
sg1031
I151
sg335
I542
sg51
I667
sg117
I71
sg689
I94
sg1032
I152
sg262
I378
sg1033
I201
sg1034
I234
sg1035
I192
sg1036
I375
sg1037
I149
sg169
I311
sg170
I611
sg1038
I252
sg1040
I157
sg1041
I174
sg1042
I285
sg173
I562
sg1043
I138
sg118
I122
sg178
I1590
sg180
I221
sg1045
I134
sg1024
I181
sg40
I612
sg1046
I320
sg185
I811
sg540
I344
sg188
I3460
sg1047
I195
sg1048
I138
sg88
I1977
sg1049
I143
sg1050
I169
sg552
I509
sg192
I310
sg599
I311
sg1053
I187
sg1054
I162
sg383
I366
sg97
I125
sg292
I326
sg1056
I266
sg1057
I264
sg296
I146
sg52
I102
sg1061
I377
sg103
I924
sg105
I685
sg203
I1083
sg1060
I203
sg209
I731
sg1058
I187
sg305
I362
sg309
I81
sg1062
I313
ssI1966
(dp1068
g1013
I169
sg5
I134
sg6
I393
sg1015
I360
sg133
I728
sg581
I303
sg135
I227
sg442
I781
sg11
I107
sg496
I306
sg1016
I173
sg1017
I196
sg136
I493
sg1018
I274
sg1019
I305
sg158
I2683
sg1052
I196
sg212
I148
sg955
I104
sg146
I225
sg24
I472
sg504
I151
sg797
I129
sg27
I757
sg421
I380
sg239
I452
sg590
I350
sg1021
I183
sg1022
I178
sg1026
I204
sg1023
I306
sg33
I147
sg337
I505
sg1025
I141
sg37
I556
sg249
I645
sg515
I225
sg116
I89
sg21
I7847
sg499
I312
sg160
I629
sg518
I112
sg1027
I138
sg1028
I175
sg1029
I156
sg520
I348
sg1030
I148
sg522
I242
sg49
I490
sg1031
I156
sg335
I539
sg51
I661
sg117
I71
sg689
I100
sg1032
I153
sg262
I379
sg1033
I205
sg1034
I237
sg1035
I189
sg1036
I372
sg1037
I150
sg169
I279
sg170
I638
sg1038
I250
sg1040
I158
sg1041
I176
sg1042
I284
sg173
I575
sg1043
I140
sg118
I125
sg178
I1574
sg180
I228
sg1045
I137
sg1024
I180
sg40
I609
sg1046
I316
sg185
I798
sg540
I348
sg188
I3442
sg1047
I196
sg1048
I140
sg88
I1972
sg1049
I143
sg1050
I168
sg552
I523
sg192
I338
sg599
I315
sg1053
I189
sg1054
I162
sg383
I399
sg97
I124
sg292
I331
sg1056
I264
sg1057
I266
sg296
I151
sg52
I101
sg1061
I378
sg103
I921
sg105
I672
sg203
I1112
sg1060
I202
sg209
I729
sg1058
I191
sg305
I361
sg309
I81
sg1062
I313
ssI1967
(dp1069
g1013
I170
sg5
I134
sg6
I391
sg1015
I367
sg133
I726
sg581
I310
sg135
I233
sg442
I798
sg11
I107
sg496
I311
sg1016
I175
sg1017
I196
sg136
I494
sg1018
I274
sg1019
I305
sg158
I2717
sg1052
I195
sg212
I151
sg955
I120
sg146
I229
sg24
I467
sg504
I154
sg797
I126
sg27
I756
sg421
I384
sg239
I447
sg590
I351
sg1021
I182
sg1022
I178
sg1026
I202
sg1023
I304
sg33
I153
sg337
I507
sg1025
I141
sg37
I548
sg249
I657
sg515
I229
sg116
I89
sg21
I7858
sg499
I315
sg160
I636
sg518
I119
sg1027
I140
sg1028
I174
sg1029
I156
sg520
I372
sg1030
I145
sg522
I247
sg49
I483
sg1031
I161
sg335
I536
sg51
I655
sg117
I71
sg689
I106
sg1032
I154
sg262
I380
sg1033
I209
sg1034
I240
sg1035
I186
sg1036
I369
sg1037
I151
sg169
I247
sg170
I665
sg1038
I248
sg1040
I159
sg1041
I178
sg1042
I283
sg173
I588
sg1043
I142
sg118
I128
sg178
I1558
sg180
I235
sg1045
I140
sg1024
I179
sg40
I606
sg1046
I312
sg185
I785
sg540
I352
sg188
I3424
sg1047
I197
sg1048
I142
sg88
I1967
sg1049
I143
sg1050
I167
sg552
I537
sg192
I366
sg599
I319
sg1053
I191
sg1054
I162
sg383
I432
sg97
I123
sg292
I336
sg1056
I262
sg1057
I268
sg296
I156
sg52
I100
sg1061
I379
sg103
I918
sg105
I659
sg203
I1141
sg1060
I201
sg209
I727
sg1058
I195
sg305
I360
sg309
I81
sg1062
I313
ssI1968
(dp1070
g1013
I171
sg5
I134
sg6
I389
sg1015
I374
sg133
I724
sg581
I317
sg135
I239
sg442
I815
sg11
I107
sg496
I316
sg1016
I177
sg1017
I196
sg136
I495
sg1018
I274
sg1019
I305
sg158
I2751
sg1052
I194
sg212
I154
sg955
I136
sg146
I233
sg24
I462
sg504
I157
sg797
I123
sg27
I755
sg421
I388
sg239
I442
sg590
I352
sg1021
I181
sg1022
I178
sg1026
I200
sg1023
I302
sg33
I159
sg337
I509
sg1025
I141
sg37
I540
sg249
I669
sg515
I233
sg116
I89
sg21
I7869
sg499
I318
sg160
I643
sg518
I126
sg1027
I142
sg1028
I173
sg1029
I156
sg520
I396
sg1030
I142
sg522
I252
sg49
I476
sg1031
I166
sg335
I533
sg51
I649
sg117
I71
sg689
I112
sg1032
I155
sg262
I381
sg1033
I213
sg1034
I243
sg1035
I183
sg1036
I366
sg1037
I152
sg169
I215
sg170
I692
sg1038
I246
sg1040
I160
sg1041
I180
sg1042
I282
sg173
I601
sg1043
I144
sg118
I131
sg178
I1542
sg180
I242
sg1045
I143
sg1024
I178
sg40
I603
sg1046
I308
sg185
I772
sg540
I356
sg188
I3406
sg1047
I198
sg1048
I144
sg88
I1962
sg1049
I143
sg1050
I166
sg552
I551
sg192
I394
sg599
I323
sg1053
I193
sg1054
I162
sg383
I465
sg97
I122
sg292
I341
sg1056
I260
sg1057
I270
sg296
I161
sg52
I99
sg1061
I380
sg103
I915
sg105
I646
sg203
I1170
sg1060
I200
sg209
I725
sg1058
I199
sg305
I359
sg309
I81
sg1062
I313
ssI1969
(dp1071
g1013
I172
sg5
I134
sg6
I387
sg1015
I381
sg133
I722
sg581
I324
sg135
I245
sg442
I832
sg11
I107
sg496
I321
sg1016
I179
sg1017
I196
sg136
I496
sg1018
I274
sg1019
I305
sg158
I2785
sg1052
I193
sg212
I157
sg955
I152
sg146
I237
sg24
I457
sg504
I160
sg797
I120
sg27
I754
sg421
I392
sg239
I437
sg590
I353
sg1021
I180
sg1022
I178
sg1026
I198
sg1023
I300
sg33
I165
sg337
I511
sg1025
I141
sg37
I532
sg249
I681
sg515
I237
sg116
I89
sg21
I7880
sg499
I321
sg160
I650
sg518
I133
sg1027
I144
sg1028
I172
sg1029
I156
sg520
I420
sg1030
I139
sg522
I257
sg49
I469
sg1031
I171
sg335
I530
sg51
I643
sg117
I71
sg689
I118
sg1032
I156
sg262
I382
sg1033
I217
sg1034
I246
sg1035
I180
sg1036
I363
sg1037
I153
sg169
I183
sg170
I719
sg1038
I244
sg1040
I161
sg1041
I182
sg1042
I281
sg173
I614
sg1043
I146
sg118
I134
sg178
I1526
sg180
I249
sg1045
I146
sg1024
I177
sg40
I600
sg1046
I304
sg185
I759
sg540
I360
sg188
I3388
sg1047
I199
sg1048
I146
sg88
I1957
sg1049
I143
sg1050
I165
sg552
I565
sg192
I422
sg599
I327
sg1053
I195
sg1054
I162
sg383
I498
sg97
I121
sg292
I346
sg1056
I258
sg1057
I272
sg296
I166
sg52
I98
sg1061
I381
sg103
I912
sg105
I633
sg203
I1199
sg1060
I199
sg209
I723
sg1058
I203
sg305
I358
sg309
I81
sg1062
I313
ssI1970
(dp1072
S'Arlington'
p1073
I174
sg5
I133
sg6
I382
sS'Toledo'
p1074
I383
sg133
I715
sg581
I331
sg135
I254
sg442
I844
sg11
I108
sg496
I322
sS'Fort Wayne'
p1075
I177
sS'Flint'
p1076
I193
sg136
I496
sS'Tampa'
p1077
I277
sS'Norfolk'
p1078
I307
sg499
I324
sS'Mobile'
p1079
I196
sg212
I160
sg955
I172
sg146
I241
sg24
I452
sg504
I165
sg797
I118
sg27
I756
sg421
I393
sg239
I434
sg590
I358
sS'Salt Lake City'
p1080
I175
sS'Gary'
p1081
I175
sg335
I530
sS'Warren'
p1082
I179
sS'Rochester'
p1083
I296
sS'Knoxville'
p1084
I174
sg337
I514
sS'Evansville'
p1085
I138
sg37
I520
sg249
I696
sg515
I243
sg39
I85
sg21
I7894
sg158
I2816
sg160
I654
sg518
I136
sS'Rockford'
p1086
I147
sS'Spokane'
p1087
I170
sS'Bridgeport'
p1088
I156
sg520
I445
sS'Youngstown'
p1089
I139
sg522
I262
sg49
I462
sS'Madison'
p1090
I171
sg51
I641
sg53
I70
sg689
I126
sS'Tacoma'
p1091
I154
sg262
I380
sS'St. Petersburg'
p1092
I216
sS'Richmond'
p1093
I249
sS'Providence'
p1094
I179
sS'Louisville'
p1095
I361
sS'Santa Ana'
p1096
I156
sS'Jackson'
p1097
I153
sS'Riverside'
p1098
I140
sS'Fort Lauderdale'
p1099
I139
sg169
I154
sg170
I744
sS'Dayton'
p1100
I243
sS'Baton Rouge'
p1101
I165
sS'Shreveport'
p1102
I182
sS'Akron'
p1103
I275
sg173
I623
sS'Lincoln'
p1104
I149
sg69
I132
sg178
I1511
sS'Anaheim'
p1105
I166
sg180
I251
sS'Greensboro'
p1106
I144
sS'Worcester'
p1107
I176
sg40
I593
sS'Birmingham'
p1108
I300
sg185
I750
sg540
I366
sg188
I3366
sS'Yonkers'
p1109
I204
sS'Lubbock'
p1110
I149
sg88
I1948
sS'Paterson'
p1111
I144
sS'Syracuse'
p1112
I197
sS'Springfield'
p1113
I163
sg552
I581
sg192
I448
sg599
I334
sS'Grand Rapids'
p1114
I197
sS'Hartford'
p1115
I158
sg383
I528
sg97
I119
sg292
I347
sS'Jersey City'
p1116
I260
sS'Wichita'
p1117
I276
sg296
I168
sg52
I100
sS'Portland'
p1118
I382
sg103
I905
sg105
I622
sg203
I1232
sS'Des Moines'
p1119
I200
sg209
I717
sS'Corpus Christi'
p1120
I204
sg305
I361
sg309
I77
sS'St. Paul'
p1121
I309
ssI1971
(dp1122
g1073
I173
sg5
I137
sg6
I377
sg1074
I380
sg133
I711
sg581
I334
sg135
I256
sg262
I379
sg11
I108
sg496
I332
sg1075
I177
sg1076
I190
sg136
I489
sg1077
I276
sg1078
I303
sg158
I2831
sg599
I335
sg518
I144
sg212
I163
sg955
I181
sg146
I248
sg24
I445
sg504
I170
sg797
I120
sg27
I744
sg421
I392
sg239
I428
sg590
I358
sg1080
I174
sg335
I526
sg1082
I177
sg1083
I291
sg1084
I174
sg337
I512
sg37
I510
sg249
I714
sg515
I252
sg116
I85
sg21
I7812
sg499
I328
sg160
I667
sg1112
I194
sg42
I146
sg1087
I170
sg520
I463
sg46
I137
sg522
I269
sg49
I452
sg1090
I171
sg51
I633
sg117
I69
sg689
I130
sg1091
I154
sg442
I850
sg1092
I218
sg1093
I246
sg1094
I177
sg1095
I355
sg1096
I161
sg1097
I158
sg1098
I143
sg169
I156
sg170
I740
sg1100
I239
sg1101
I170
sg1102
I184
sg1103
I271
sg173
I625
sg1104
I151
sg118
I135
sg178
I1480
sg1105
I171
sg180
I260
sg75
I145
sg1107
I175
sg40
I589
sg1108
I298
sg185
I732
sg540
I370
sg188
I3330
sg1109
I203
sg1110
I151
sg88
I1922
sg798
I143
sg552
I602
sg192
I449
sg1079
I196
sg1114
I195
sg383
I529
sg97
I124
sg292
I344
sg1116
I256
sg1117
I276
sg296
I167
sg52
I99
sg1120
I207
sg103
I893
sg105
I605
sg203
I1268
sg1119
I199
sg209
I709
sg1118
I380
sg305
I359
sg309
I76
sg1121
I305
ssI1972
(dp1123
g1073
I172
sg5
I141
sg6
I372
sg1074
I377
sg133
I707
sg581
I337
sg135
I258
sg262
I378
sg11
I108
sg496
I342
sg1075
I177
sg1076
I187
sg136
I482
sg1077
I275
sg1078
I299
sg158
I2846
sg599
I336
sg518
I152
sg212
I166
sg955
I190
sg146
I255
sg24
I438
sg504
I175
sg797
I122
sg27
I732
sg421
I391
sg239
I422
sg590
I358
sg1080
I173
sg335
I522
sg1082
I175
sg1083
I286
sg1084
I174
sg337
I510
sg37
I500
sg249
I732
sg515
I261
sg116
I85
sg21
I7730
sg499
I332
sg160
I680
sg1112
I191
sg42
I145
sg1087
I170
sg520
I481
sg46
I135
sg522
I276
sg49
I442
sg1090
I171
sg51
I625
sg117
I68
sg689
I134
sg1091
I154
sg442
I856
sg1092
I220
sg1093
I243
sg1094
I175
sg1095
I349
sg1096
I166
sg1097
I163
sg1098
I146
sg169
I158
sg170
I736
sg1100
I235
sg1101
I175
sg1102
I186
sg1103
I267
sg173
I627
sg1104
I153
sg118
I138
sg178
I1449
sg1105
I176
sg180
I269
sg75
I146
sg1107
I174
sg40
I585
sg1108
I296
sg185
I714
sg540
I374
sg188
I3294
sg1109
I202
sg1110
I153
sg88
I1896
sg798
I142
sg552
I623
sg192
I450
sg1079
I196
sg1114
I193
sg383
I530
sg97
I129
sg292
I341
sg1116
I252
sg1117
I276
sg296
I166
sg52
I98
sg1120
I210
sg103
I881
sg105
I588
sg203
I1304
sg1119
I198
sg209
I701
sg1118
I378
sg305
I357
sg309
I75
sg1121
I301
ssI1973
(dp1124
g1073
I171
sg5
I145
sg6
I367
sg1074
I374
sg133
I703
sg581
I340
sg135
I260
sg262
I377
sg11
I108
sg496
I352
sg1075
I177
sg1076
I184
sg136
I475
sg1077
I274
sg1078
I295
sg158
I2861
sg599
I337
sg518
I160
sg212
I169
sg955
I199
sg146
I262
sg24
I431
sg504
I180
sg797
I124
sg27
I720
sg421
I390
sg239
I416
sg590
I358
sg1080
I172
sg335
I518
sg1082
I173
sg1083
I281
sg1084
I174
sg337
I508
sg37
I490
sg249
I750
sg515
I270
sg116
I85
sg21
I7648
sg499
I336
sg160
I693
sg1112
I188
sg42
I144
sg1087
I170
sg520
I499
sg46
I133
sg522
I283
sg49
I432
sg1090
I171
sg51
I617
sg117
I67
sg689
I138
sg1091
I154
sg442
I862
sg1092
I222
sg1093
I240
sg1094
I173
sg1095
I343
sg1096
I171
sg1097
I168
sg1098
I149
sg169
I160
sg170
I732
sg1100
I231
sg1101
I180
sg1102
I188
sg1103
I263
sg173
I629
sg1104
I155
sg118
I141
sg178
I1418
sg1105
I181
sg180
I278
sg75
I147
sg1107
I173
sg40
I581
sg1108
I294
sg185
I696
sg540
I378
sg188
I3258
sg1109
I201
sg1110
I155
sg88
I1870
sg798
I141
sg552
I644
sg192
I451
sg1079
I196
sg1114
I191
sg383
I531
sg97
I134
sg292
I338
sg1116
I248
sg1117
I276
sg296
I165
sg52
I97
sg1120
I213
sg103
I869
sg105
I571
sg203
I1340
sg1119
I197
sg209
I693
sg1118
I376
sg305
I355
sg309
I74
sg1121
I297
ssI1974
(dp1125
g1073
I170
sg5
I149
sg6
I362
sg1074
I371
sg133
I699
sg581
I343
sg135
I262
sg262
I376
sg11
I108
sg496
I362
sg1075
I177
sg1076
I181
sg136
I468
sg1077
I273
sg1078
I291
sg158
I2876
sg599
I338
sg518
I168
sg212
I172
sg955
I208
sg146
I269
sg24
I424
sg504
I185
sg797
I126
sg27
I708
sg421
I389
sg239
I410
sg590
I358
sg1080
I171
sg335
I514
sg1082
I171
sg1083
I276
sg1084
I174
sg337
I506
sg37
I480
sg249
I768
sg515
I279
sg116
I85
sg21
I7566
sg499
I340
sg160
I706
sg1112
I185
sg42
I143
sg1087
I170
sg520
I517
sg46
I131
sg522
I290
sg49
I422
sg1090
I171
sg51
I609
sg117
I66
sg689
I142
sg1091
I154
sg442
I868
sg1092
I224
sg1093
I237
sg1094
I171
sg1095
I337
sg1096
I176
sg1097
I173
sg1098
I152
sg169
I162
sg170
I728
sg1100
I227
sg1101
I185
sg1102
I190
sg1103
I259
sg173
I631
sg1104
I157
sg118
I144
sg178
I1387
sg1105
I186
sg180
I287
sg75
I148
sg1107
I172
sg40
I577
sg1108
I292
sg185
I678
sg540
I382
sg188
I3222
sg1109
I200
sg1110
I157
sg88
I1844
sg798
I140
sg552
I665
sg192
I452
sg1079
I196
sg1114
I189
sg383
I532
sg97
I139
sg292
I335
sg1116
I244
sg1117
I276
sg296
I164
sg52
I96
sg1120
I216
sg103
I857
sg105
I554
sg203
I1376
sg1119
I196
sg209
I685
sg1118
I374
sg305
I353
sg309
I73
sg1121
I293
ssI1975
(dp1126
g1073
I169
sg5
I153
sg6
I357
sg1074
I368
sg133
I695
sg581
I346
sg135
I264
sg262
I375
sg11
I108
sg496
I372
sg1075
I177
sg1076
I178
sg136
I461
sg1077
I272
sg1078
I287
sg158
I2891
sg599
I339
sg518
I176
sg212
I175
sg955
I217
sg146
I276
sg24
I417
sg504
I190
sg797
I128
sg27
I696
sg421
I388
sg239
I404
sg590
I358
sg1080
I170
sg335
I510
sg1082
I169
sg1083
I271
sg1084
I174
sg337
I504
sg37
I470
sg249
I786
sg515
I288
sg116
I85
sg21
I7484
sg499
I344
sg160
I719
sg1112
I182
sg42
I142
sg1087
I170
sg520
I535
sg46
I129
sg522
I297
sg49
I412
sg1090
I171
sg51
I601
sg117
I65
sg689
I146
sg1091
I154
sg442
I874
sg1092
I226
sg1093
I234
sg1094
I169
sg1095
I331
sg1096
I181
sg1097
I178
sg1098
I155
sg169
I164
sg170
I724
sg1100
I223
sg1101
I190
sg1102
I192
sg1103
I255
sg173
I633
sg1104
I159
sg118
I147
sg178
I1356
sg1105
I191
sg180
I296
sg75
I149
sg1107
I171
sg40
I573
sg1108
I290
sg185
I660
sg540
I386
sg188
I3186
sg1109
I199
sg1110
I159
sg88
I1818
sg798
I139
sg552
I686
sg192
I453
sg1079
I196
sg1114
I187
sg383
I533
sg97
I144
sg292
I332
sg1116
I240
sg1117
I276
sg296
I163
sg52
I95
sg1120
I219
sg103
I845
sg105
I537
sg203
I1412
sg1119
I195
sg209
I677
sg1118
I372
sg305
I351
sg309
I72
sg1121
I289
ssI1976
(dp1127
g1073
I168
sg5
I157
sg6
I352
sg1074
I365
sg133
I691
sg581
I349
sg135
I266
sg262
I374
sg11
I108
sg496
I382
sg1075
I177
sg1076
I175
sg136
I454
sg1077
I271
sg1078
I283
sg158
I2906
sg599
I340
sg518
I184
sg212
I178
sg955
I226
sg146
I283
sg24
I410
sg504
I195
sg797
I130
sg27
I684
sg421
I387
sg239
I398
sg590
I358
sg1080
I169
sg335
I506
sg1082
I167
sg1083
I266
sg1084
I174
sg337
I502
sg37
I460
sg249
I804
sg515
I297
sg116
I85
sg21
I7402
sg499
I348
sg160
I732
sg1112
I179
sg42
I141
sg1087
I170
sg520
I553
sg46
I127
sg522
I304
sg49
I402
sg1090
I171
sg51
I593
sg117
I64
sg689
I150
sg1091
I154
sg442
I880
sg1092
I228
sg1093
I231
sg1094
I167
sg1095
I325
sg1096
I186
sg1097
I183
sg1098
I158
sg169
I166
sg170
I720
sg1100
I219
sg1101
I195
sg1102
I194
sg1103
I251
sg173
I635
sg1104
I161
sg118
I150
sg178
I1325
sg1105
I196
sg180
I305
sg75
I150
sg1107
I170
sg40
I569
sg1108
I288
sg185
I642
sg540
I390
sg188
I3150
sg1109
I198
sg1110
I161
sg88
I1792
sg798
I138
sg552
I707
sg192
I454
sg1079
I196
sg1114
I185
sg383
I534
sg97
I149
sg292
I329
sg1116
I236
sg1117
I276
sg296
I162
sg52
I94
sg1120
I222
sg103
I833
sg105
I520
sg203
I1448
sg1119
I194
sg209
I669
sg1118
I370
sg305
I349
sg309
I71
sg1121
I285
ssI1977
(dp1128
g1073
I167
sg5
I161
sg6
I347
sg1074
I362
sg133
I687
sg581
I352
sg135
I268
sg262
I373
sg11
I108
sg496
I392
sg1075
I177
sg1076
I172
sg136
I447
sg1077
I270
sg1078
I279
sg158
I2921
sg599
I341
sg518
I192
sg212
I181
sg955
I235
sg146
I290
sg24
I403
sg504
I200
sg797
I132
sg27
I672
sg421
I386
sg239
I392
sg590
I358
sg1080
I168
sg335
I502
sg1082
I165
sg1083
I261
sg1084
I174
sg337
I500
sg37
I450
sg249
I822
sg515
I306
sg116
I85
sg21
I7320
sg499
I352
sg160
I745
sg1112
I176
sg42
I140
sg1087
I170
sg520
I571
sg46
I125
sg522
I311
sg49
I392
sg1090
I171
sg51
I585
sg117
I63
sg689
I154
sg1091
I154
sg442
I886
sg1092
I230
sg1093
I228
sg1094
I165
sg1095
I319
sg1096
I191
sg1097
I188
sg1098
I161
sg169
I168
sg170
I716
sg1100
I215
sg1101
I200
sg1102
I196
sg1103
I247
sg173
I637
sg1104
I163
sg118
I153
sg178
I1294
sg1105
I201
sg180
I314
sg75
I151
sg1107
I169
sg40
I565
sg1108
I286
sg185
I624
sg540
I394
sg188
I3114
sg1109
I197
sg1110
I163
sg88
I1766
sg798
I137
sg552
I728
sg192
I455
sg1079
I196
sg1114
I183
sg383
I535
sg97
I154
sg292
I326
sg1116
I232
sg1117
I276
sg296
I161
sg52
I93
sg1120
I225
sg103
I821
sg105
I503
sg203
I1484
sg1119
I193
sg209
I661
sg1118
I368
sg305
I347
sg309
I70
sg1121
I281
ssI1978
(dp1129
g1073
I166
sg5
I165
sg6
I342
sg1074
I359
sg133
I683
sg581
I355
sg135
I270
sg262
I372
sg11
I108
sg496
I402
sg1075
I177
sg1076
I169
sg136
I440
sg1077
I269
sg1078
I275
sg158
I2936
sg599
I342
sg518
I200
sg212
I184
sg955
I244
sg146
I297
sg24
I396
sg504
I205
sg797
I134
sg27
I660
sg421
I385
sg239
I386
sg590
I358
sg1080
I167
sg335
I498
sg1082
I163
sg1083
I256
sg1084
I174
sg337
I498
sg37
I440
sg249
I840
sg515
I315
sg116
I85
sg21
I7238
sg499
I356
sg160
I758
sg1112
I173
sg42
I139
sg1087
I170
sg520
I589
sg46
I123
sg522
I318
sg49
I382
sg1090
I171
sg51
I577
sg117
I62
sg689
I158
sg1091
I154
sg442
I892
sg1092
I232
sg1093
I225
sg1094
I163
sg1095
I313
sg1096
I196
sg1097
I193
sg1098
I164
sg169
I170
sg170
I712
sg1100
I211
sg1101
I205
sg1102
I198
sg1103
I243
sg173
I639
sg1104
I165
sg118
I156
sg178
I1263
sg1105
I206
sg180
I323
sg75
I152
sg1107
I168
sg40
I561
sg1108
I284
sg185
I606
sg540
I398
sg188
I3078
sg1109
I196
sg1110
I165
sg88
I1740
sg798
I136
sg552
I749
sg192
I456
sg1079
I196
sg1114
I181
sg383
I536
sg97
I159
sg292
I323
sg1116
I228
sg1117
I276
sg296
I160
sg52
I92
sg1120
I228
sg103
I809
sg105
I486
sg203
I1520
sg1119
I192
sg209
I653
sg1118
I366
sg305
I345
sg309
I69
sg1121
I277
ssI1979
(dp1130
g1073
I165
sg5
I169
sg6
I337
sg1074
I356
sg133
I679
sg581
I358
sg135
I272
sg262
I371
sg11
I108
sg496
I412
sg1075
I177
sg1076
I166
sg136
I433
sg1077
I268
sg1078
I271
sg158
I2951
sg599
I343
sg518
I208
sg212
I187
sg955
I253
sg146
I304
sg24
I389
sg504
I210
sg797
I136
sg27
I648
sg421
I384
sg239
I380
sg590
I358
sg1080
I166
sg335
I494
sg1082
I161
sg1083
I251
sg1084
I174
sg337
I496
sg37
I430
sg249
I858
sg515
I324
sg116
I85
sg21
I7156
sg499
I360
sg160
I771
sg1112
I170
sg42
I138
sg1087
I170
sg520
I607
sg46
I121
sg522
I325
sg49
I372
sg1090
I171
sg51
I569
sg117
I61
sg689
I162
sg1091
I154
sg442
I898
sg1092
I234
sg1093
I222
sg1094
I161
sg1095
I307
sg1096
I201
sg1097
I198
sg1098
I167
sg169
I172
sg170
I708
sg1100
I207
sg1101
I210
sg1102
I200
sg1103
I239
sg173
I641
sg1104
I167
sg118
I159
sg178
I1232
sg1105
I211
sg180
I332
sg75
I153
sg1107
I167
sg40
I557
sg1108
I282
sg185
I588
sg540
I402
sg188
I3042
sg1109
I195
sg1110
I167
sg88
I1714
sg798
I135
sg552
I770
sg192
I457
sg1079
I196
sg1114
I179
sg383
I537
sg97
I164
sg292
I320
sg1116
I224
sg1117
I276
sg296
I159
sg52
I91
sg1120
I231
sg103
I797
sg105
I469
sg203
I1556
sg1119
I191
sg209
I645
sg1118
I364
sg305
I343
sg309
I68
sg1121
I273
ssI1980
(dp1131
S'Arlington'
p1132
I160
sS'Montgomery'
p1133
I177
sg6
I329
sS'Toledo'
p1134
I354
sg133
I678
sg581
I360
sg135
I275
sg262
I368
sg11
I103
sg496
I425
sS'Fort Wayne'
p1135
I172
sS'Flint'
p1136
I159
sg136
I425
sS'Tampa'
p1137
I271
sS'Norfolk'
p1138
I266
sg499
I365
sg599
I346
sS'Lexington'
p1139
I204
sg955
I262
sg146
I314
sg24
I385
sg504
I218
sg797
I141
sg27
I638
sg421
I385
sg239
I370
sg590
I361
sS'Salt Lake City'
p1140
I163
sS'Syracuse'
p1141
I170
sS'Warren'
p1142
I161
sS'Rochester'
p1143
I241
sS'Knoxville'
p1144
I175
sg337
I492
sg37
I423
sS'Aurora'
p1145
I158
sg249
I875
sS'Metairie'
p1146
I164
sg515
I331
sg39
I82
sg40
I557
sg158
I2966
sg160
I785
sg518
I215
sg42
I139
sS'Spokane'
p1147
I171
sg520
I629
sg46
I115
sg522
I330
sg49
I357
sS'Madison'
p1148
I170
sg335
I493
sg51
I562
sg53
I61
sg689
I164
sS'Huntington Beach'
p1149
I170
sS'Tacoma'
p1150
I158
sg442
I904
sS'St. Petersburg'
p1151
I238
sS'Richmond'
p1152
I219
sS'Providence'
p1153
I156
sS'Louisville'
p1154
I298
sS'Santa Ana'
p1155
I203
sS'Jackson'
p1156
I202
sS'Riverside'
p1157
I170
sg169
I169
sg170
I700
sS'Dayton'
p1158
I203
sS'Baton Rouge'
p1159
I219
sS'Shreveport'
p1160
I205
sS'Akron'
p1161
I237
sg173
I646
sS'Lincoln'
p1162
I172
sS'Little Rock'
p1163
I159
sg178
I1203
sS'Anaheim'
p1164
I219
sg180
I345
sg75
I155
sS'Worcester'
p1165
I161
sg21
I7071
sS'Birmingham'
p1166
I284
sg185
I573
sg540
I403
sg188
I3005
sS'Yonkers'
p1167
I195
sS'Lubbock'
p1168
I173
sg88
I1688
sg798
I137
sg552
I789
sg192
I455
sS'Mobile'
p1169
I200
sS'Grand Rapids'
p1170
I181
sg383
I540
sS'Chattanooga'
p1171
I169
sg292
I314
sS'Jersey City'
p1172
I223
sS'Anchorage'
p1173
I174
sS'Wichita'
p1174
I279
sg296
I161
sg52
I93
sS'Corpus Christi'
p1175
I231
sg103
I786
sg105
I453
sg203
I1595
sS'Des Moines'
p1176
I191
sg209
I636
sS'Portland'
p1177
I366
sg305
I339
sg309
I67
sS'St. Paul'
p1178
I270
ssI1981
(dp1179
g1132
I161
sg1133
I178
sg6
I324
sg1134
I352
sg133
I683
sg581
I361
sg135
I284
sg442
I914
sg11
I104
sg496
I434
sg1135
I172
sg136
I422
sg1137
I272
sg1138
I266
sg158
I3018
sg1169
I200
sg1139
I206
sg955
I275
sg146
I322
sg24
I383
sg504
I232
sg797
I141
sg27
I635
sg421
I391
sg239
I370
sg590
I368
sg335
I495
sg1143
I240
sg33
I174
sg337
I490
sg37
I418
sg1145
I164
sg249
I899
sg515
I336
sg116
I82
sg40
I551
sg499
I365
sg160
I800
sg518
I222
sg42
I139
sg1147
I172
sg520
I644
sg46
I113
sg522
I338
sg49
I354
sg1148
I172
sg51
I563
sg117
I61
sg689
I173
sg1149
I171
sg1150
I160
sg262
I375
sg1151
I238
sg1152
I217
sg1154
I295
sg1155
I212
sg1156
I201
sg1157
I176
sg169
I170
sg170
I703
sg1158
I201
sg1159
I219
sg1160
I204
sg1161
I236
sg173
I642
sg1162
I174
sg1163
I161
sg178
I1185
sg1164
I224
sg180
I357
sg75
I158
sg21
I7096
sg1166
I282
sg185
I566
sg540
I407
sg188
I2983
sg1167
I194
sg1168
I174
sg88
I1678
sg798
I137
sg552
I808
sg192
I410
sg599
I347
sg1170
I182
sg383
I550
sg97
I167
sg292
I316
sg1172
I224
sg1173
I179
sg1174
I282
sg296
I188
sg52
I92
sg1177
I373
sg103
I781
sg105
I447
sg203
I1599
sg1176
I191
sg209
I635
sg1175
I234
sg305
I342
sg309
I67
sg1178
I270
ssI1982
(dp1180
g1132
I162
sg1133
I179
sg6
I319
sg1134
I350
sg133
I688
sg581
I362
sg135
I293
sg442
I924
sg11
I105
sg496
I443
sg1135
I172
sg136
I419
sg1137
I273
sg1138
I266
sg158
I3070
sg1169
I200
sg1139
I208
sg955
I288
sg146
I330
sg24
I381
sg504
I246
sg797
I141
sg27
I632
sg421
I397
sg239
I370
sg590
I375
sg335
I497
sg1143
I239
sg33
I173
sg337
I488
sg37
I413
sg1145
I170
sg249
I923
sg515
I341
sg116
I82
sg40
I545
sg499
I365
sg160
I815
sg518
I229
sg42
I139
sg1147
I173
sg520
I659
sg46
I111
sg522
I346
sg49
I351
sg1148
I174
sg51
I564
sg117
I61
sg689
I182
sg1149
I172
sg1150
I162
sg262
I382
sg1151
I238
sg1152
I215
sg1154
I292
sg1155
I221
sg1156
I200
sg1157
I182
sg169
I171
sg170
I706
sg1158
I199
sg1159
I219
sg1160
I203
sg1161
I235
sg173
I638
sg1162
I176
sg1163
I163
sg178
I1167
sg1164
I229
sg180
I369
sg75
I161
sg21
I7121
sg1166
I280
sg185
I559
sg540
I411
sg188
I2961
sg1167
I193
sg1168
I175
sg88
I1668
sg798
I137
sg552
I827
sg192
I365
sg599
I348
sg1170
I183
sg383
I560
sg97
I165
sg292
I318
sg1172
I225
sg1173
I184
sg1174
I285
sg296
I215
sg52
I91
sg1177
I380
sg103
I776
sg105
I441
sg203
I1603
sg1176
I191
sg209
I634
sg1175
I237
sg305
I345
sg309
I67
sg1178
I270
ssI1983
(dp1181
g1132
I163
sg1133
I180
sg6
I314
sg1134
I348
sg133
I693
sg581
I363
sg135
I302
sg442
I934
sg11
I106
sg496
I452
sg1135
I172
sg136
I416
sg1137
I274
sg1138
I266
sg158
I3122
sg1169
I200
sg1139
I210
sg955
I301
sg146
I338
sg24
I379
sg504
I260
sg797
I141
sg27
I629
sg421
I403
sg239
I370
sg590
I382
sg335
I499
sg1143
I238
sg33
I172
sg337
I486
sg37
I408
sg1145
I176
sg249
I947
sg515
I346
sg116
I82
sg40
I539
sg499
I365
sg160
I830
sg518
I236
sg42
I139
sg1147
I174
sg520
I674
sg46
I109
sg522
I354
sg49
I348
sg1148
I176
sg51
I565
sg117
I61
sg689
I191
sg1149
I173
sg1150
I164
sg262
I389
sg1151
I238
sg1152
I213
sg1154
I289
sg1155
I230
sg1156
I199
sg1157
I188
sg169
I172
sg170
I709
sg1158
I197
sg1159
I219
sg1160
I202
sg1161
I234
sg173
I634
sg1162
I178
sg1163
I165
sg178
I1149
sg1164
I234
sg180
I381
sg75
I164
sg21
I7146
sg1166
I278
sg185
I552
sg540
I415
sg188
I2939
sg1167
I192
sg1168
I176
sg88
I1658
sg798
I137
sg552
I846
sg192
I320
sg599
I349
sg1170
I184
sg383
I570
sg97
I163
sg292
I320
sg1172
I226
sg1173
I189
sg1174
I288
sg296
I242
sg52
I90
sg1177
I387
sg103
I771
sg105
I435
sg203
I1607
sg1176
I191
sg209
I633
sg1175
I240
sg305
I348
sg309
I67
sg1178
I270
ssI1984
(dp1182
g1132
I164
sg1133
I181
sg6
I309
sg1134
I346
sg133
I698
sg581
I364
sg135
I311
sg442
I944
sg11
I107
sg496
I461
sg1135
I172
sg136
I413
sg1137
I275
sg1138
I266
sg158
I3174
sg1169
I200
sg1139
I212
sg955
I314
sg146
I346
sg24
I377
sg504
I274
sg797
I141
sg27
I626
sg421
I409
sg239
I370
sg590
I389
sg335
I501
sg1143
I237
sg33
I171
sg337
I484
sg37
I403
sg1145
I182
sg249
I971
sg515
I351
sg116
I82
sg40
I533
sg499
I365
sg160
I845
sg518
I243
sg42
I139
sg1147
I175
sg520
I689
sg46
I107
sg522
I362
sg49
I345
sg1148
I178
sg51
I566
sg117
I61
sg689
I200
sg1149
I174
sg1150
I166
sg262
I396
sg1151
I238
sg1152
I211
sg1154
I286
sg1155
I239
sg1156
I198
sg1157
I194
sg169
I173
sg170
I712
sg1158
I195
sg1159
I219
sg1160
I201
sg1161
I233
sg173
I630
sg1162
I180
sg1163
I167
sg178
I1131
sg1164
I239
sg180
I393
sg75
I167
sg21
I7171
sg1166
I276
sg185
I545
sg540
I419
sg188
I2917
sg1167
I191
sg1168
I177
sg88
I1648
sg798
I137
sg552
I865
sg192
I275
sg599
I350
sg1170
I185
sg383
I580
sg97
I161
sg292
I322
sg1172
I227
sg1173
I194
sg1174
I291
sg296
I269
sg52
I89
sg1177
I394
sg103
I766
sg105
I429
sg203
I1611
sg1176
I191
sg209
I632
sg1175
I243
sg305
I351
sg309
I67
sg1178
I270
ssI1985
(dp1183
g1132
I165
sg1133
I182
sg6
I304
sg1134
I344
sg133
I703
sg581
I365
sg135
I320
sg442
I954
sg11
I108
sg496
I470
sg1135
I172
sg136
I410
sg1137
I276
sg1138
I266
sg158
I3226
sg1169
I200
sg1139
I214
sg955
I327
sg146
I354
sg24
I375
sg504
I288
sg797
I141
sg27
I623
sg421
I415
sg239
I370
sg590
I396
sg335
I503
sg1143
I236
sg33
I170
sg337
I482
sg37
I398
sg1145
I188
sg249
I995
sg515
I356
sg116
I82
sg40
I527
sg499
I365
sg160
I860
sg518
I250
sg42
I139
sg1147
I176
sg520
I704
sg46
I105
sg522
I370
sg49
I342
sg1148
I180
sg51
I567
sg117
I61
sg689
I209
sg1149
I175
sg1150
I168
sg262
I403
sg1151
I238
sg1152
I209
sg1154
I283
sg1155
I248
sg1156
I197
sg1157
I200
sg169
I174
sg170
I715
sg1158
I193
sg1159
I219
sg1160
I200
sg1161
I232
sg173
I626
sg1162
I182
sg1163
I169
sg178
I1113
sg1164
I244
sg180
I405
sg75
I170
sg21
I7196
sg1166
I274
sg185
I538
sg540
I423
sg188
I2895
sg1167
I190
sg1168
I178
sg88
I1638
sg798
I137
sg552
I884
sg192
I230
sg599
I351
sg1170
I186
sg383
I590
sg97
I159
sg292
I324
sg1172
I228
sg1173
I199
sg1174
I294
sg296
I296
sg52
I88
sg1177
I401
sg103
I761
sg105
I423
sg203
I1615
sg1176
I191
sg209
I631
sg1175
I246
sg305
I354
sg309
I67
sg1178
I270
ssI1986
(dp1184
g1132
I166
sg1133
I183
sg6
I299
sg1134
I342
sg133
I708
sg581
I366
sg135
I329
sg442
I964
sg11
I109
sg496
I479
sg1135
I172
sg136
I407
sg1137
I277
sg1138
I266
sg158
I3278
sg1169
I200
sg1139
I216
sg955
I340
sg146
I362
sg24
I373
sg504
I302
sg797
I141
sg27
I620
sg421
I421
sg239
I370
sg590
I403
sg335
I505
sg1143
I235
sg33
I169
sg337
I480
sg37
I393
sg1145
I194
sg249
I1019
sg515
I361
sg116
I82
sg40
I521
sg499
I365
sg160
I875
sg518
I257
sg42
I139
sg1147
I177
sg520
I719
sg46
I103
sg522
I378
sg49
I339
sg1148
I182
sg51
I568
sg117
I61
sg689
I218
sg1149
I176
sg1150
I170
sg262
I410
sg1151
I238
sg1152
I207
sg1154
I280
sg1155
I257
sg1156
I196
sg1157
I206
sg169
I175
sg170
I718
sg1158
I191
sg1159
I219
sg1160
I199
sg1161
I231
sg173
I622
sg1162
I184
sg1163
I171
sg178
I1095
sg1164
I249
sg180
I417
sg75
I173
sg21
I7221
sg1166
I272
sg185
I531
sg540
I427
sg188
I2873
sg1167
I189
sg1168
I179
sg88
I1628
sg798
I137
sg552
I903
sg192
I185
sg599
I352
sg1170
I187
sg383
I600
sg97
I157
sg292
I326
sg1172
I229
sg1173
I204
sg1174
I297
sg296
I323
sg52
I87
sg1177
I408
sg103
I756
sg105
I417
sg203
I1619
sg1176
I191
sg209
I630
sg1175
I249
sg305
I357
sg309
I67
sg1178
I270
ssI1987
(dp1185
g1132
I167
sg1133
I184
sg6
I294
sg1134
I340
sg133
I713
sg581
I367
sg135
I338
sg442
I974
sg11
I110
sg496
I488
sg1135
I172
sg136
I404
sg1137
I278
sg1138
I266
sg158
I3330
sg1169
I200
sg1139
I218
sg955
I353
sg146
I370
sg24
I371
sg504
I316
sg797
I141
sg27
I617
sg421
I427
sg239
I370
sg590
I410
sg335
I507
sg1143
I234
sg33
I168
sg337
I478
sg37
I388
sg1145
I200
sg249
I1043
sg515
I366
sg116
I82
sg40
I515
sg499
I365
sg160
I890
sg518
I264
sg42
I139
sg1147
I178
sg520
I734
sg46
I101
sg522
I386
sg49
I336
sg1148
I184
sg51
I569
sg117
I61
sg689
I227
sg1149
I177
sg1150
I172
sg262
I417
sg1151
I238
sg1152
I205
sg1154
I277
sg1155
I266
sg1156
I195
sg1157
I212
sg169
I176
sg170
I721
sg1158
I189
sg1159
I219
sg1160
I198
sg1161
I230
sg173
I618
sg1162
I186
sg1163
I173
sg178
I1077
sg1164
I254
sg180
I429
sg75
I176
sg21
I7246
sg1166
I270
sg185
I524
sg540
I431
sg188
I2851
sg1167
I188
sg1168
I180
sg88
I1618
sg798
I137
sg552
I922
sg192
I140
sg599
I353
sg1170
I188
sg383
I610
sg97
I155
sg292
I328
sg1172
I230
sg1173
I209
sg1174
I300
sg296
I350
sg52
I86
sg1177
I415
sg103
I751
sg105
I411
sg203
I1623
sg1176
I191
sg209
I629
sg1175
I252
sg305
I360
sg309
I67
sg1178
I270
ssI1988
(dp1186
g1132
I168
sg1133
I185
sg6
I289
sg1134
I338
sg133
I718
sg581
I368
sg135
I347
sg442
I984
sg11
I111
sg496
I497
sg1135
I172
sg136
I401
sg1137
I279
sg1138
I266
sg158
I3382
sg1169
I200
sg1139
I220
sg955
I366
sg146
I378
sg24
I369
sg504
I330
sg797
I141
sg27
I614
sg421
I433
sg239
I370
sg590
I417
sg335
I509
sg1143
I233
sg33
I167
sg337
I476
sg37
I383
sg1145
I206
sg249
I1067
sg515
I371
sg116
I82
sg40
I509
sg499
I365
sg160
I905
sg518
I271
sg42
I139
sg1147
I179
sg520
I749
sg46
I99
sg522
I394
sg49
I333
sg1148
I186
sg51
I570
sg117
I61
sg689
I236
sg1149
I178
sg1150
I174
sg262
I424
sg1151
I238
sg1152
I203
sg1154
I274
sg1155
I275
sg1156
I194
sg1157
I218
sg169
I177
sg170
I724
sg1158
I187
sg1159
I219
sg1160
I197
sg1161
I229
sg173
I614
sg1162
I188
sg1163
I175
sg178
I1059
sg1164
I259
sg180
I441
sg75
I179
sg21
I7271
sg1166
I268
sg185
I517
sg540
I435
sg188
I2829
sg1167
I187
sg1168
I181
sg88
I1608
sg798
I137
sg552
I941
sg192
I95
sg599
I354
sg1170
I189
sg383
I620
sg97
I153
sg292
I330
sg1172
I231
sg1173
I214
sg1174
I303
sg296
I377
sg52
I85
sg1177
I422
sg103
I746
sg105
I405
sg203
I1627
sg1176
I191
sg209
I628
sg1175
I255
sg305
I363
sg309
I67
sg1178
I270
ssI1989
(dp1187
g1132
I169
sg1133
I186
sg6
I284
sg1134
I336
sg133
I723
sg581
I369
sg135
I356
sg442
I994
sg11
I112
sg496
I506
sg1135
I172
sg136
I398
sg1137
I280
sg1138
I266
sg158
I3434
sg1169
I200
sg1139
I222
sg955
I379
sg146
I386
sg24
I367
sg504
I344
sg797
I141
sg27
I611
sg421
I439
sg239
I370
sg590
I424
sg335
I511
sg1143
I232
sg33
I166
sg337
I474
sg37
I378
sg1145
I212
sg249
I1091
sg515
I376
sg116
I82
sg40
I503
sg499
I365
sg160
I920
sg518
I278
sg42
I139
sg1147
I180
sg520
I764
sg46
I97
sg522
I402
sg49
I330
sg1148
I188
sg51
I571
sg117
I61
sg689
I245
sg1149
I179
sg1150
I176
sg262
I431
sg1151
I238
sg1152
I201
sg1154
I271
sg1155
I284
sg1156
I193
sg1157
I224
sg169
I178
sg170
I727
sg1158
I185
sg1159
I219
sg1160
I196
sg1161
I228
sg173
I610
sg1162
I190
sg1163
I177
sg178
I1041
sg1164
I264
sg180
I453
sg75
I182
sg21
I7296
sg1166
I266
sg185
I510
sg540
I439
sg188
I2807
sg1167
I186
sg1168
I182
sg88
I1598
sg798
I137
sg552
I960
sg192
I50
sg599
I355
sg1170
I190
sg383
I630
sg97
I151
sg292
I332
sg1172
I232
sg1173
I219
sg1174
I306
sg296
I404
sg52
I84
sg1177
I429
sg103
I741
sg105
I399
sg203
I1631
sg1176
I191
sg209
I627
sg1175
I258
sg305
I366
sg309
I67
sg1178
I270
ssI1990
(dp1188
S'Arlington'
p1189
I170
sS'Montgomery'
p1190
I187
sg6
I275
sS'Toledo'
p1191
I332
sg133
I723
sg581
I367
sg135
I369
sg442
I1006
sS'Fremont'
p1192
I173
sg496
I515
sS'Fort Wayne'
p1193
I173
sg136
I394
sS'Tampa'
p1194
I280
sS'Norfolk'
p1195
I261
sg499
I365
sS'Mobile'
p1196
I196
sS'Lexington'
p1197
I225
sg955
I393
sg146
I395
sg24
I364
sg504
I354
sg797
I137
sg27
I606
sg421
I447
sg239
I368
sS'Hialeah'
p1198
I188
sg590
I429
sg335
I516
sS'Rochester'
p1199
I231
sg33
I165
sg337
I467
sg37
I369
sS'Aurora'
p1200
I222
sg249
I1110
sg515
I384
sg39
I80
sg21
I7322
sg158
I3485
sg160
I935
sg518
I281
sg42
I139
sS'Spokane'
p1201
I177
sg520
I782
sg46
I95
sg522
I405
sg49
I328
sS'Madison'
p1202
I191
sg51
I574
sg53
I57
sg689
I258
sS'Huntington Beach'
p1203
I181
sS'Tacoma'
p1204
I176
sg262
I439
sg11
I108
sS'St. Petersburg'
p1205
I238
sS'Richmond'
p1206
I203
sS'Louisville'
p1207
I269
sS'Santa Ana'
p1208
I293
sS'Jackson'
p1209
I196
sS'Riverside'
p1210
I226
sg169
I178
sg170
I731
sS'Dayton'
p1211
I182
sS'Baton Rouge'
p1212
I219
sS'Shreveport'
p1213
I198
sS'Akron'
p1214
I223
sS'Mesa'
p1215
I288
sg173
I610
sS'Lincoln'
p1216
I192
sS'Little Rock'
p1217
I175
sg178
I1027
sS'Anaheim'
p1218
I266
sg180
I465
sS'Greensboro'
p1219
I183
sS'Stockton'
p1220
I210
sg40
I496
sS'Birmingham'
p1221
I265
sg185
I505
sg540
I444
sg188
I2783
sS'Yonkers'
p1222
I188
sS'Lubbock'
p1223
I186
sg88
I1585
sg798
I140
sg552
I983
sg192
I0
sg599
I358
sS'Grand Rapids'
p1224
I189
sg383
I635
sS'Bakersfield'
p1225
I174
sg97
I152
sg292
I335
sS'Jersey City'
p1226
I228
sS'Anchorage'
p1227
I226
sS'Wichita'
p1228
I304
sg296
I435
sg52
I85
sS'Raleigh'
p1229
I207
sS'Glendale'
p1230
I180
sS'Portland'
p1231
I437
sg103
I736
sg105
I396
sg203
I1630
sS'Garland'
p1232
I180
sS'Des Moines'
p1233
I193
sg209
I628
sS'Corpus Christi'
p1234
I257
sg305
I372
sg309
I65
sS'St. Paul'
p1235
I272
ssI1991
(dp1236
g249
I1111
sg262
I446
sg649
I196
sg33
I166
sg88
I1567
sg337
I472
sg6
I274
sg117
I57
sg798
I141
sg133
I725
sg158
I3497
sg169
I258
sg170
I734
sg49
I325
sg581
I369
sg37
I366
sg135
I370
sg192
I85
sg11
I108
sg515
I390
sg116
I80
sg496
I529
sg689
I278
sg75
I186
sg499
I375
sg522
I412
sg136
I395
sg173
I608
sg383
I643
sg518
I292
sg42
I140
sg65
I195
sg292
I340
sg146
I403
sg599
I359
sg797
I137
sg520
I792
sg118
I176
sg296
I436
sg178
I1023
sg97
I152
sg46
I96
sg52
I85
sg209
I622
sg442
I1014
sg180
I478
sg955
I399
sg105
I389
sg203
I1649
sg214
I193
sg335
I518
sg24
I361
sg552
I1012
sg504
I361
sg103
I726
sg51
I571
sg54
I176
sg27
I596
sg421
I453
sg239
I367
sg160
I957
sg590
I428
sg40
I493
sg188
I2773
sg185
I504
sg21
I7332
sg540
I448
sg305
I371
sg309
I65
ssI1992
(dp1237
g249
I1112
sg262
I453
sg649
I196
sg33
I167
sg88
I1549
sg337
I477
sg6
I273
sg117
I57
sg798
I142
sg133
I727
sg158
I3509
sg169
I338
sg170
I737
sg49
I322
sg581
I371
sg37
I363
sg135
I371
sg192
I170
sg11
I108
sg515
I396
sg116
I80
sg496
I543
sg689
I298
sg75
I189
sg499
I385
sg522
I419
sg136
I396
sg173
I606
sg383
I651
sg518
I303
sg42
I141
sg65
I198
sg292
I345
sg146
I411
sg599
I360
sg797
I137
sg520
I802
sg118
I177
sg296
I437
sg178
I1019
sg97
I152
sg46
I97
sg52
I85
sg209
I616
sg442
I1022
sg180
I491
sg955
I405
sg105
I382
sg203
I1668
sg214
I195
sg335
I520
sg24
I358
sg552
I1041
sg504
I368
sg103
I716
sg51
I568
sg54
I176
sg27
I586
sg421
I459
sg239
I366
sg160
I979
sg590
I427
sg40
I490
sg188
I2763
sg185
I503
sg21
I7342
sg540
I452
sg305
I370
sg309
I65
ssI1993
(dp1238
g249
I1113
sg262
I460
sg649
I196
sg33
I168
sg88
I1531
sg337
I482
sg6
I272
sg117
I57
sg798
I143
sg133
I729
sg158
I3521
sg169
I418
sg170
I740
sg49
I319
sg581
I373
sg37
I360
sg135
I372
sg192
I255
sg11
I108
sg515
I402
sg116
I80
sg496
I557
sg689
I318
sg75
I192
sg499
I395
sg522
I426
sg136
I397
sg173
I604
sg383
I659
sg518
I314
sg42
I142
sg65
I201
sg292
I350
sg146
I419
sg599
I361
sg797
I137
sg520
I812
sg118
I178
sg296
I438
sg178
I1015
sg97
I152
sg46
I98
sg52
I85
sg209
I610
sg442
I1030
sg180
I504
sg955
I411
sg105
I375
sg203
I1687
sg214
I197
sg335
I522
sg24
I355
sg552
I1070
sg504
I375
sg103
I706
sg51
I565
sg54
I176
sg27
I576
sg421
I465
sg239
I365
sg160
I1001
sg590
I426
sg40
I487
sg188
I2753
sg185
I502
sg21
I7352
sg540
I456
sg305
I369
sg309
I65
ssI1994
(dp1239
g249
I1114
sg262
I467
sg649
I196
sg33
I169
sg88
I1513
sg337
I487
sg6
I271
sg117
I57
sg798
I144
sg133
I731
sg158
I3533
sg169
I498
sg170
I743
sg49
I316
sg581
I375
sg37
I357
sg135
I373
sg192
I340
sg11
I108
sg515
I408
sg116
I80
sg496
I571
sg689
I338
sg75
I195
sg499
I405
sg522
I433
sg136
I398
sg173
I602
sg383
I667
sg518
I325
sg42
I143
sg65
I204
sg292
I355
sg146
I427
sg599
I362
sg797
I137
sg520
I822
sg118
I179
sg296
I439
sg178
I1011
sg97
I152
sg46
I99
sg52
I85
sg209
I604
sg442
I1038
sg180
I517
sg955
I417
sg105
I368
sg203
I1706
sg214
I199
sg335
I524
sg24
I352
sg552
I1099
sg504
I382
sg103
I696
sg51
I562
sg54
I176
sg27
I566
sg421
I471
sg239
I364
sg160
I1023
sg590
I425
sg40
I484
sg188
I2743
sg185
I501
sg21
I7362
sg540
I460
sg305
I368
sg309
I65
ssI1995
(dp1240
g249
I1115
sg262
I474
sg649
I196
sg33
I170
sg88
I1495
sg337
I492
sg6
I270
sg117
I57
sg798
I145
sg133
I733
sg158
I3545
sg169
I578
sg170
I746
sg49
I313
sg581
I377
sg37
I354
sg135
I374
sg192
I425
sg11
I108
sg515
I414
sg116
I80
sg496
I585
sg689
I358
sg75
I198
sg499
I415
sg522
I440
sg136
I399
sg173
I600
sg383
I675
sg518
I336
sg42
I144
sg65
I207
sg292
I360
sg146
I435
sg599
I363
sg797
I137
sg520
I832
sg118
I180
sg296
I440
sg178
I1007
sg97
I152
sg46
I100
sg52
I85
sg209
I598
sg442
I1046
sg180
I530
sg955
I423
sg105
I361
sg203
I1725
sg214
I201
sg335
I526
sg24
I349
sg552
I1128
sg504
I389
sg103
I686
sg51
I559
sg54
I176
sg27
I556
sg421
I477
sg239
I363
sg160
I1045
sg590
I424
sg40
I481
sg188
I2733
sg185
I500
sg21
I7372
sg540
I464
sg305
I367
sg309
I65
ssI1996
(dp1241
g249
I1117
sg75
I203
sg262
I481
sg649
I197
sg33
I169
sg88
I1478
sg337
I498
sg5
I194
sg442
I1053
sg53
I58
sg798
I144
sg133
I735
sg40
I477
sg499
I424
sg169
I657
sg170
I746
sg581
I378
sg37
I350
sg135
I376
sg192
I511
sg11
I108
sg515
I420
sg39
I82
sg496
I600
sg21
I7381
sg955
I431
sg158
I3554
sg522
I449
sg136
I402
sg173
I597
sg383
I680
sg518
I345
sg42
I144
sg65
I207
sg292
I364
sg180
I541
sg146
I442
sg599
I365
sg520
I839
sg69
I179
sg296
I441
sg178
I1000
sg97
I153
sg46
I99
sg52
I86
sg54
I176
sg49
I311
sg103
I678
sg105
I352
sg203
I1744
sg214
I200
sg335
I525
sg24
I346
sg552
I1159
sg504
I396
sg797
I134
sg51
I558
sg27
I543
sg421
I480
sg239
I359
sg160
I1068
sg590
I422
sg689
I377
sg188
I2721
sg6
I269
sg185
I498
sg209
I590
sg540
I470
sg305
I367
sg309
I63
ss.